; generated by Component: ARM Compiler 5.06 update 6 (build 750) Tool: ArmCC [4d3637]
; commandline ArmCC [--c99 --list --split_sections --debug -c --asm --interleave -o.\4ouhs-c\obj\ite_comm_api.o --asm_dir=.\4OUHS-C\list\ --list_dir=.\4OUHS-C\list\ --depend=.\4ouhs-c\obj\ite_comm_api.d --cpu=Cortex-M3 --apcs=interwork -O0 --diag_suppress=9931,1293,186 -I..\CMSIS\CM3 -I..\CMSIS\CM3\CORE -I..\CMSIS\STM32LIB\inc -I..\SYSTEM\delay -I..\SYSTEM\sys -I..\SYSTEM\usart -I..\USER -I..\BSP -I..\USER\model_macro -I..\USER\external_chip -I..\USER\eeprom -I..\USER\project_file -I..\FreeRTOS\include -I..\FreeRTOS\portable\RVDS\ARM_CM3 -I..\SYSTEM\flash -I..\USER\video_chip -I..\USER\VideoChip_Mn86478x\Inc -I..\USER\VideoChip_Mn86478x\Src\apl -I..\USER\VideoChip_Mn86478x\Src\CEC\cec\include -I..\USER\VideoChip_Mn86478x\Src\CEC\cec\include_share -I..\USER\VideoChip_Mn86478x\Src\CEC\cec\Intr\inc -I..\USER\VideoChip_Mn86478x\Src\CEC\cec\Manager\inc -I..\USER\VideoChip_Mn86478x\Src\CEC\cec\PollingMsg\inc -I..\USER\VideoChip_Mn86478x\Src\CEC\cec\RxFrame\inc -I..\USER\VideoChip_Mn86478x\Src\CEC\cec\TxFrame\inc -I..\USER\VideoChip_Mn86478x\Src\CEC\cec\wrap\inc -I..\USER\VideoChip_Mn86478x\Src\CEC\sys\include -I..\USER\VideoChip_Mn86478x\Src\CEC\sys\include_share -I..\USER\VideoChip_Mn86478x\Src\CEC\sys\main\inc -I..\USER\VideoChip_Mn86478x\Src\CEC\sys\share\IIC\inc -I..\USER\VideoChip_Mn86478x\Src\CEC\sys\share\msgevent\inc -I..\USER\VideoChip_Mn86478x\Src\CEC\sys\share\timer\inc -I..\USER\VideoChip_Mn86478x\Src\CEC\sys\share\tsksrv\inc -I..\USER\VideoChip_Mn86478x\Src\CEC\sys\wrap\inc -I..\USER\VideoChip_Mn86478x\Src\HDMIDrv\conf -I..\USER\VideoChip_Mn86478x\Src\HDMIDrv\drvctl\include -I..\USER\VideoChip_Mn86478x\Src\HDMIDrv\framework\include -I..\USER\VideoChip_Mn86478x\Src\HDMIDrv\include -I..\USER\VideoChip_Mn86478x\Src\HDMIDrv\MainRegDriver\include -I..\USER\VideoChip_Mn86478x\Src\HDMIDrv\OsdDriver\include -I..\USER\VideoChip_Mn86478x\Src\HDMIDrv\RxDriver\include -I..\USER\VideoChip_Mn86478x\Src\HDMIDrv\TxDriver\include -I..\USER\external_chip\sii9630 -I..\USER\VideoChip_GSV\source\kapi\gsv2k6_gsv2k8_4x4_matrix -I..\USER\VideoChip_GSV\source\uapi\gsv2k6_gsv2k8_4x4_matrix -I..\USER\VideoChip_GSV\source\uapi\gsv2k6_r1_reg -I..\USER\VideoChip_GSV\source\uapi\gsv2k8_r1_reg -I..\USER\VideoChip_GSV\source\userapp\stm32f103ve_gsv2k6_gsv2k8_c_hssuh0404\apps -I..\USER\VideoChip_GSV\source\userbsp\keil\stm32f103ve_gsv2k6_gsv2k8_c_hssuh0404 -I..\USER\VideoChip_GSV\source\uapi\gsv2k2_r1_reg -I..\USER\Task_Function\include -I..\USER\VideoChip_GSV\source\uapi\gsv2k11_r1_reg -I..\USER\VideoChip_GSV\source\uapi\gsv2k1_r1_reg -I..\USER\VideoChip_Ms1826\sdklib -I..\USER\VideoChip_Ms1826\app -I..\USER\VideoChip_Ms1826 -I.\RTE\_F10XRC_LMX_4OUHS_C -IC:\Users\Administrator\AppData\Local\Arm\Packs\Keil\STM32F1xx_DFP\2.4.1\Device\Include -IC:\Keil_v529\ARM\CMSIS\Include -D__MICROLIB -D__UVISION_VERSION=529 -DSTM32F10X_HD -DUSE_STDPERIPH_DRIVER -DSTM32F10X_HD -D_PROJECT_CURRENT_SELECT=_PROJECT_LMX_4OUHS_C --omf_browse=.\4ouhs-c\obj\ite_comm_api.crf ..\USER\ITE_comm_api.c]
                          THUMB

                          AREA ||i.CRC8Calculate||, CODE, READONLY, ALIGN=1

                  CRC8Calculate PROC
;;;89     
;;;90     uint8_t CRC8Calculate(void *pBuf ,unsigned pBufSize)
000000  b5f0              PUSH     {r4-r7,lr}
;;;91     {
000002  4602              MOV      r2,r0
;;;92         uint8_t     retCRCValue = 0x00, *pData, i=0, pDataBuf=0;
000004  2000              MOVS     r0,#0
000006  2400              MOVS     r4,#0
000008  2500              MOVS     r5,#0
;;;93     
;;;94         pData=(unsigned char *)pBuf;
00000a  4613              MOV      r3,r2
;;;95         while(pBufSize--)
00000c  e014              B        |L1.56|
                  |L1.14|
;;;96         {
;;;97             pDataBuf=*pData++;
00000e  f8135b01          LDRB     r5,[r3],#1
;;;98             for(i=0;i<8;i++)
000012  2400              MOVS     r4,#0
000014  e00e              B        |L1.52|
                  |L1.22|
;;;99             {
;;;100                if((retCRCValue^(pDataBuf))&0x01)
000016  ea800605          EOR      r6,r0,r5
00001a  f0060601          AND      r6,r6,#1
00001e  b12e              CBZ      r6,|L1.44|
;;;101                {
;;;102                    retCRCValue^=0x18;
000020  f0800018          EOR      r0,r0,#0x18
;;;103                    retCRCValue>>=1;
000024  1040              ASRS     r0,r0,#1
;;;104                    retCRCValue|=0x80;
000026  f0400080          ORR      r0,r0,#0x80
00002a  e000              B        |L1.46|
                  |L1.44|
;;;105                }
;;;106                else
;;;107                {
;;;108                    retCRCValue>>=1;
00002c  1040              ASRS     r0,r0,#1
                  |L1.46|
;;;109                }
;;;110                pDataBuf>>=1;
00002e  106d              ASRS     r5,r5,#1
000030  1c66              ADDS     r6,r4,#1              ;98
000032  b2f4              UXTB     r4,r6                 ;98
                  |L1.52|
000034  2c08              CMP      r4,#8                 ;98
000036  dbee              BLT      |L1.22|
                  |L1.56|
000038  1e0e              SUBS     r6,r1,#0              ;95
00003a  f1a10101          SUB      r1,r1,#1              ;95
00003e  d1e6              BNE      |L1.14|
;;;111            }
;;;112        }
;;;113        return retCRCValue;
;;;114    }
000040  bdf0              POP      {r4-r7,pc}
;;;115    
                          ENDP


                          AREA ||i.CalEdidCheckSum||, CODE, READONLY, ALIGN=1

                  CalEdidCheckSum PROC
;;;115    
;;;116    iTE_u8 CalEdidCheckSum(iTE_u8 edid[],iTE_u8 block)
000000  b530              PUSH     {r4,r5,lr}
;;;117    {
000002  4602              MOV      r2,r0
000004  460c              MOV      r4,r1
;;;118        iTE_u16 i,sum,Checksum;
;;;119        sum=0;
000006  2300              MOVS     r3,#0
;;;120        Checksum=0;
000008  2500              MOVS     r5,#0
;;;121        if(block)
00000a  b14c              CBZ      r4,|L2.32|
;;;122        {
;;;123            for(i=0x80;i<0xFE;i++)  sum=sum+edid[i];
00000c  2180              MOVS     r1,#0x80
00000e  e004              B        |L2.26|
                  |L2.16|
000010  5c50              LDRB     r0,[r2,r1]
000012  4418              ADD      r0,r0,r3
000014  b283              UXTH     r3,r0
000016  1c48              ADDS     r0,r1,#1
000018  b281              UXTH     r1,r0
                  |L2.26|
00001a  29fe              CMP      r1,#0xfe
00001c  dbf8              BLT      |L2.16|
00001e  e008              B        |L2.50|
                  |L2.32|
;;;124        }
;;;125    
;;;126        else
;;;127        {
;;;128            for(i=0x00;i<0x7F;i++)  sum=sum+edid[i];
000020  2100              MOVS     r1,#0
000022  e004              B        |L2.46|
                  |L2.36|
000024  5c50              LDRB     r0,[r2,r1]
000026  4418              ADD      r0,r0,r3
000028  b283              UXTH     r3,r0
00002a  1c48              ADDS     r0,r1,#1
00002c  b281              UXTH     r1,r0
                  |L2.46|
00002e  297f              CMP      r1,#0x7f
000030  dbf8              BLT      |L2.36|
                  |L2.50|
;;;129        }
;;;130        Checksum= 0x100- (sum & 0xFF);
000032  b2d8              UXTB     r0,r3
000034  f5c07580          RSB      r5,r0,#0x100
;;;131        return Checksum;
000038  b2e8              UXTB     r0,r5
;;;132    }
00003a  bd30              POP      {r4,r5,pc}
;;;133    
                          ENDP


                          AREA ||i.FillIT663xxEdidData||, CODE, READONLY, ALIGN=2

                  FillIT663xxEdidData PROC
;;;807    #endif //add by wf8421
;;;808    void FillIT663xxEdidData(iTE_u8 *pBuffer)
000000  b510              PUSH     {r4,lr}
;;;809    {
000002  4604              MOV      r4,r0
;;;810        if(is_edid_valid(pBuffer))
000004  4620              MOV      r0,r4
000006  f7fffffe          BL       is_edid_valid
00000a  b130              CBZ      r0,|L3.26|
;;;811        {
;;;812            memcpy(g_pu8It663xxEdidBuffer, pBuffer, 256);
00000c  f44f7280          MOV      r2,#0x100
000010  4621              MOV      r1,r4
000012  4806              LDR      r0,|L3.44|
000014  f7fffffe          BL       __aeabi_memcpy
000018  e006              B        |L3.40|
                  |L3.26|
;;;813        }
;;;814        else
;;;815        {
;;;816            memcpy(g_pu8It663xxEdidBuffer, System_Default_Edid_table, 256);
00001a  f44f7280          MOV      r2,#0x100
00001e  4804              LDR      r0,|L3.48|
000020  6801              LDR      r1,[r0,#0]  ; System_Default_Edid_table
000022  4802              LDR      r0,|L3.44|
000024  f7fffffe          BL       __aeabi_memcpy
                  |L3.40|
;;;817        }
;;;818    }
000028  bd10              POP      {r4,pc}
;;;819    
                          ENDP

00002a  0000              DCW      0x0000
                  |L3.44|
                          DCD      g_pu8It663xxEdidBuffer
                  |L3.48|
                          DCD      System_Default_Edid_table

                          AREA ||i.FillIT663xxEdidDataForSingleChannel||, CODE, READONLY, ALIGN=2

                  FillIT663xxEdidDataForSingleChannel PROC
;;;820    #if _ENABLE_EDID_SWITCH_A_SINGLE_CHANNEL
;;;821    void FillIT663xxEdidDataForSingleChannel(iTE_u8 *pBuffer,u8 u8InPort)
000000  b570              PUSH     {r4-r6,lr}
;;;822    {
000002  4605              MOV      r5,r0
000004  460c              MOV      r4,r1
;;;823        if(is_edid_valid(pBuffer))
000006  4628              MOV      r0,r5
000008  f7fffffe          BL       is_edid_valid
00000c  b140              CBZ      r0,|L4.32|
;;;824        {
;;;825            memcpy(g_u8SingleChannelEdidBuffer[u8InPort], pBuffer, 256);
00000e  4909              LDR      r1,|L4.52|
000010  eb012004          ADD      r0,r1,r4,LSL #8
000014  f44f7280          MOV      r2,#0x100
000018  4629              MOV      r1,r5
00001a  f7fffffe          BL       __aeabi_memcpy
00001e  e008              B        |L4.50|
                  |L4.32|
;;;826        }
;;;827        else
;;;828        {
;;;829            memcpy(g_u8SingleChannelEdidBuffer[u8InPort], System_Default_Edid_table, 256);
000020  4904              LDR      r1,|L4.52|
000022  eb012004          ADD      r0,r1,r4,LSL #8
000026  f44f7280          MOV      r2,#0x100
00002a  4903              LDR      r1,|L4.56|
00002c  6809              LDR      r1,[r1,#0]  ; System_Default_Edid_table
00002e  f7fffffe          BL       __aeabi_memcpy
                  |L4.50|
;;;830        }
;;;831    }
000032  bd70              POP      {r4-r6,pc}
;;;832    
                          ENDP

                  |L4.52|
                          DCD      g_u8SingleChannelEdidBuffer
                  |L4.56|
                          DCD      System_Default_Edid_table

                          AREA ||i.FindChar||, CODE, READONLY, ALIGN=1

                  FindChar PROC
;;;2004   
;;;2005   char *FindChar(char *buf,char Taildata,uint16_t Bitwide)
000000  b510              PUSH     {r4,lr}
;;;2006   {
000002  4603              MOV      r3,r0
;;;2007       //char MemberArr[4];
;;;2008   //  unsigned char Arrcur=0;
;;;2009       unsigned char bitcnt=0;
000004  2400              MOVS     r4,#0
;;;2010   
;;;2011       while(*buf!=Taildata)
000006  e006              B        |L5.22|
                  |L5.8|
;;;2012       {
;;;2013           buf++;
000008  1c5b              ADDS     r3,r3,#1
;;;2014           bitcnt++;
00000a  1c60              ADDS     r0,r4,#1
00000c  b2c4              UXTB     r4,r0
;;;2015           if(bitcnt>Bitwide)
00000e  4294              CMP      r4,r2
000010  dd01              BLE      |L5.22|
;;;2016               return 0;
000012  2000              MOVS     r0,#0
                  |L5.20|
;;;2017       }
;;;2018       return buf;
;;;2019   }
000014  bd10              POP      {r4,pc}
                  |L5.22|
000016  7818              LDRB     r0,[r3,#0]            ;2011
000018  4288              CMP      r0,r1                 ;2011
00001a  d1f5              BNE      |L5.8|
00001c  4618              MOV      r0,r3                 ;2018
00001e  e7f9              B        |L5.20|
;;;2020   
                          ENDP


                          AREA ||i.GetIT663xxEdidDataForSingleChannel||, CODE, READONLY, ALIGN=2

                  GetIT663xxEdidDataForSingleChannel PROC
;;;832    
;;;833    void GetIT663xxEdidDataForSingleChannel(iTE_u8 *pu8GetBuffer,u8 u8InPort)
000000  b570              PUSH     {r4-r6,lr}
;;;834    {
000002  4605              MOV      r5,r0
000004  460c              MOV      r4,r1
;;;835        memcpy(pu8GetBuffer, g_u8SingleChannelEdidBuffer[u8InPort], 256);
000006  4804              LDR      r0,|L6.24|
000008  eb002104          ADD      r1,r0,r4,LSL #8
00000c  f44f7280          MOV      r2,#0x100
000010  4628              MOV      r0,r5
000012  f7fffffe          BL       __aeabi_memcpy
;;;836    }
000016  bd70              POP      {r4-r6,pc}
;;;837    #endif
                          ENDP

                  |L6.24|
                          DCD      g_u8SingleChannelEdidBuffer

                          AREA ||i.GetLenOfStr||, CODE, READONLY, ALIGN=1

                  GetLenOfStr PROC
;;;2092   /*在字符串中寻找数字 并返回数字字符个数 未找到返回0*/
;;;2093   unsigned char GetLenOfStr(char *buf,char Taildata,unsigned char Bitwide)
000000  b530              PUSH     {r4,r5,lr}
;;;2094   {
000002  4603              MOV      r3,r0
000004  460c              MOV      r4,r1
;;;2095       //char MemberArr[4];
;;;2096       unsigned char Arrcur=0;
000006  2500              MOVS     r5,#0
;;;2097       unsigned char bitcnt=0;
000008  2100              MOVS     r1,#0
;;;2098   
;;;2099       while(*buf!=Taildata)
00000a  e011              B        |L7.48|
                  |L7.12|
;;;2100       {
;;;2101           if(*buf>='0'&&*buf<='9')
00000c  7818              LDRB     r0,[r3,#0]
00000e  2830              CMP      r0,#0x30
000010  db05              BLT      |L7.30|
000012  7818              LDRB     r0,[r3,#0]
000014  2839              CMP      r0,#0x39
000016  dc02              BGT      |L7.30|
;;;2102           {
;;;2103               //MemberArr[Arrcur]=*buf;
;;;2104               Arrcur++;
000018  1c68              ADDS     r0,r5,#1
00001a  b2c5              UXTB     r5,r0
00001c  e001              B        |L7.34|
                  |L7.30|
;;;2105           }
;;;2106           else
;;;2107               return 0;
00001e  2000              MOVS     r0,#0
                  |L7.32|
;;;2108           buf++;
;;;2109           bitcnt++;
;;;2110           if(bitcnt>Bitwide)
;;;2111               return 0;
;;;2112       }
;;;2113       return bitcnt;
;;;2114   }
000020  bd30              POP      {r4,r5,pc}
                  |L7.34|
000022  1c5b              ADDS     r3,r3,#1              ;2108
000024  1c48              ADDS     r0,r1,#1              ;2109
000026  b2c1              UXTB     r1,r0                 ;2109
000028  4291              CMP      r1,r2                 ;2110
00002a  dd01              BLE      |L7.48|
00002c  2000              MOVS     r0,#0                 ;2111
00002e  e7f7              B        |L7.32|
                  |L7.48|
000030  7818              LDRB     r0,[r3,#0]            ;2099
000032  42a0              CMP      r0,r4                 ;2099
000034  d1ea              BNE      |L7.12|
000036  4608              MOV      r0,r1                 ;2113
000038  e7f2              B        |L7.32|
;;;2115   
                          ENDP


                          AREA ||i.GetNumofStr||, CODE, READONLY, ALIGN=1

                  GetNumofStr PROC
;;;2068   /*在字符串中寻找数字 并返回数字 未找到返回-1*/
;;;2069   short GetNumofStr(char *buf,char Taildata,unsigned char Bitwide)
000000  e92d41fe          PUSH     {r1-r8,lr}
;;;2070   {
000004  4604              MOV      r4,r0
000006  460e              MOV      r6,r1
000008  4617              MOV      r7,r2
;;;2071       char MemberArr[10];
;;;2072       unsigned char Arrcur=0;
00000a  f04f0800          MOV      r8,#0
;;;2073       unsigned char bitcnt=0;
00000e  2500              MOVS     r5,#0
;;;2074   
;;;2075       while(*buf!=Taildata)
000010  e019              B        |L8.70|
                  |L8.18|
;;;2076       {
;;;2077           if(*buf>='0'&&*buf<='9')
000012  7820              LDRB     r0,[r4,#0]
000014  2830              CMP      r0,#0x30
000016  db0a              BLT      |L8.46|
000018  7820              LDRB     r0,[r4,#0]
00001a  2839              CMP      r0,#0x39
00001c  dc07              BGT      |L8.46|
;;;2078           {
;;;2079               MemberArr[Arrcur]=*buf;
00001e  7820              LDRB     r0,[r4,#0]
000020  f80d0008          STRB     r0,[sp,r8]
;;;2080               Arrcur++;
000024  f1080001          ADD      r0,r8,#1
000028  f00008ff          AND      r8,r0,#0xff
00002c  e003              B        |L8.54|
                  |L8.46|
;;;2081           }
;;;2082           else
;;;2083               return -1;
00002e  f04f30ff          MOV      r0,#0xffffffff
                  |L8.50|
;;;2084           buf++;
;;;2085           bitcnt++;
;;;2086           if(bitcnt>Bitwide)
;;;2087               return -1;
;;;2088       }
;;;2089       return StrToNum(MemberArr,bitcnt);
;;;2090   }
000032  e8bd81fe          POP      {r1-r8,pc}
                  |L8.54|
000036  1c64              ADDS     r4,r4,#1              ;2084
000038  1c68              ADDS     r0,r5,#1              ;2085
00003a  b2c5              UXTB     r5,r0                 ;2085
00003c  42bd              CMP      r5,r7                 ;2086
00003e  dd02              BLE      |L8.70|
000040  f04f30ff          MOV      r0,#0xffffffff        ;2087
000044  e7f5              B        |L8.50|
                  |L8.70|
000046  7820              LDRB     r0,[r4,#0]            ;2075
000048  42b0              CMP      r0,r6                 ;2075
00004a  d1e2              BNE      |L8.18|
00004c  4629              MOV      r1,r5                 ;2089
00004e  4668              MOV      r0,sp                 ;2089
000050  f7fffffe          BL       StrToNum
000054  b200              SXTH     r0,r0                 ;2089
000056  e7ec              B        |L8.50|
;;;2091   
                          ENDP


                          AREA ||i.HexAndAsciiChange||, CODE, READONLY, ALIGN=1

                  HexAndAsciiChange PROC
;;;1787   //------------------------------------------------------------------------------
;;;1788   u8 HexAndAsciiChange(u8 cvalue,u8 cmode)
000000  4602              MOV      r2,r0
;;;1789   {
;;;1790       u8 reValue=0;
000002  2000              MOVS     r0,#0
;;;1791   
;;;1792       if(cmode == 1)
000004  2901              CMP      r1,#1
000006  d119              BNE      |L9.60|
;;;1793       {
;;;1794           if((cvalue&0x0F)>=0&&(cvalue&0x0F)<=9)
000008  f002030f          AND      r3,r2,#0xf
00000c  2b00              CMP      r3,#0
00000e  db07              BLT      |L9.32|
000010  f002030f          AND      r3,r2,#0xf
000014  2b09              CMP      r3,#9
000016  dc03              BGT      |L9.32|
;;;1795           {
;;;1796               reValue=cvalue+'0';
000018  f1020330          ADD      r3,r2,#0x30
00001c  b2d8              UXTB     r0,r3
00001e  e026              B        |L9.110|
                  |L9.32|
;;;1797           }
;;;1798           else if((cvalue&0x0F)>=0x0A&&(cvalue&0x0F)<=0x0F)
000020  f002030f          AND      r3,r2,#0xf
000024  2b0a              CMP      r3,#0xa
000026  db07              BLT      |L9.56|
000028  f002030f          AND      r3,r2,#0xf
00002c  2b0f              CMP      r3,#0xf
00002e  dc03              BGT      |L9.56|
;;;1799           {
;;;1800               reValue=cvalue-0x0A+'A';
000030  f1020337          ADD      r3,r2,#0x37
000034  b2d8              UXTB     r0,r3
000036  e01a              B        |L9.110|
                  |L9.56|
;;;1801           }
;;;1802           else
;;;1803           {
;;;1804               reValue=cvalue;
000038  4610              MOV      r0,r2
00003a  e018              B        |L9.110|
                  |L9.60|
;;;1805               //printf("Change error: %x\n",cvalue);
;;;1806           }
;;;1807       }
;;;1808       else
;;;1809       {
;;;1810           if(((cvalue)>='0'&&(cvalue)<='9'))
00003c  2a30              CMP      r2,#0x30
00003e  db05              BLT      |L9.76|
000040  2a39              CMP      r2,#0x39
000042  dc03              BGT      |L9.76|
;;;1811           {
;;;1812               reValue=cvalue-'0';
000044  f1a20330          SUB      r3,r2,#0x30
000048  b2d8              UXTB     r0,r3
00004a  e010              B        |L9.110|
                  |L9.76|
;;;1813           }
;;;1814           else if((cvalue)>='A'&&(cvalue)<='F')
00004c  2a41              CMP      r2,#0x41
00004e  db05              BLT      |L9.92|
000050  2a46              CMP      r2,#0x46
000052  dc03              BGT      |L9.92|
;;;1815           {
;;;1816               reValue=cvalue+0x0A-'A';
000054  f1a20337          SUB      r3,r2,#0x37
000058  b2d8              UXTB     r0,r3
00005a  e008              B        |L9.110|
                  |L9.92|
;;;1817           }
;;;1818           else if((cvalue)>='a'&&(cvalue)<='f')
00005c  2a61              CMP      r2,#0x61
00005e  db05              BLT      |L9.108|
000060  2a66              CMP      r2,#0x66
000062  dc03              BGT      |L9.108|
;;;1819           {
;;;1820               reValue=cvalue+0x0A-'a';
000064  f1a20357          SUB      r3,r2,#0x57
000068  b2d8              UXTB     r0,r3
00006a  e000              B        |L9.110|
                  |L9.108|
;;;1821           }
;;;1822           else
;;;1823           {
;;;1824               reValue=cvalue;
00006c  4610              MOV      r0,r2
                  |L9.110|
;;;1825               //printf("Change error: %x\n",cvalue);
;;;1826           }
;;;1827       }
;;;1828   
;;;1829       return reValue;
;;;1830   }
00006e  4770              BX       lr
;;;1831   
                          ENDP


                          AREA ||i.LimitedVSDBMaxPixel||, CODE, READONLY, ALIGN=1

                  LimitedVSDBMaxPixel PROC
;;;223    
;;;224    void LimitedVSDBMaxPixel(uint8_t* pEdidBlk1, uint8_t MaxPixelC)
000000  b5f0              PUSH     {r4-r7,lr}
;;;225    {
000002  460a              MOV      r2,r1
;;;226        uint8_t u8BlkTag = 0, u8BlkLen = 0, DTDoffset, offset = 4;
000004  2300              MOVS     r3,#0
000006  2600              MOVS     r6,#0
000008  2104              MOVS     r1,#4
;;;227        bool bVSDBFind = FALSE;
00000a  2500              MOVS     r5,#0
;;;228    
;;;229        DTDoffset = pEdidBlk1[2];
00000c  7884              LDRB     r4,[r0,#2]
;;;230    
;;;231        do
00000e  bf00              NOP      
                  |L10.16|
;;;232        {
;;;233            u8BlkTag = pEdidBlk1[offset]>>5;
000010  5c47              LDRB     r7,[r0,r1]
000012  117b              ASRS     r3,r7,#5
;;;234            u8BlkLen = pEdidBlk1[offset]&0x1F;
000014  5c47              LDRB     r7,[r0,r1]
000016  f007061f          AND      r6,r7,#0x1f
;;;235            if(u8BlkTag == 3)//VSDB block TAG
00001a  2b03              CMP      r3,#3
00001c  d101              BNE      |L10.34|
;;;236            {
;;;237                bVSDBFind = TRUE;
00001e  2501              MOVS     r5,#1
;;;238                break;
000020  e004              B        |L10.44|
                  |L10.34|
;;;239            }
;;;240            offset += (u8BlkLen+1);
000022  1c77              ADDS     r7,r6,#1
000024  440f              ADD      r7,r7,r1
000026  b2f9              UXTB     r1,r7
;;;241        }while(offset < DTDoffset);
000028  42a1              CMP      r1,r4
00002a  dbf1              BLT      |L10.16|
                  |L10.44|
00002c  bf00              NOP                            ;238
;;;242    
;;;243        if(bVSDBFind)
00002e  b12d              CBZ      r5,|L10.60|
;;;244        {
;;;245            #if (_EN_USE_REMOVE_EDID_DEEPCOLOR == _MACRO_ENABLE)
;;;246            if((pEdidBlk1[offset+6]&0xF0)!=0)
;;;247            {
;;;248                pEdidBlk1[offset+6] &= 0x0F;//remove Deepcolor
;;;249            }
;;;250            #endif
;;;251    
;;;252            if(pEdidBlk1[offset+7] > MaxPixelC)//max pixel clock
000030  1dcf              ADDS     r7,r1,#7
000032  5dc7              LDRB     r7,[r0,r7]
000034  4297              CMP      r7,r2
000036  dd01              BLE      |L10.60|
;;;253            {
;;;254                pEdidBlk1[offset+7] = MaxPixelC;
000038  1dcf              ADDS     r7,r1,#7
00003a  55c2              STRB     r2,[r0,r7]
                  |L10.60|
;;;255            }
;;;256        }
;;;257    }
00003c  bdf0              POP      {r4-r7,pc}
;;;258    
                          ENDP


                          AREA ||i.NumToStr||, CODE, READONLY, ALIGN=1

                  NumToStr PROC
;;;2039   /*数字转换成字符buf 返回buf的字符个数*/
;;;2040   unsigned short NumToStr(char* buf,char* Str,unsigned char member)
000000  e92d43f0          PUSH     {r4-r9,lr}
;;;2041   {
000004  4604              MOV      r4,r0
000006  460b              MOV      r3,r1
000008  4615              MOV      r5,r2
;;;2042       unsigned char tempB=0,tempS=0,tempG=0;
00000a  2200              MOVS     r2,#0
00000c  2600              MOVS     r6,#0
00000e  2700              MOVS     r7,#0
;;;2043       unsigned short i;
;;;2044       unsigned short strcursor=0;
000010  2000              MOVS     r0,#0
;;;2045       for(i=0;i<member;i++)
000012  2100              MOVS     r1,#0
000014  e057              B        |L11.198|
                  |L11.22|
;;;2046       {
;;;2047           tempB=buf[i]/100;
000016  f814c001          LDRB     r12,[r4,r1]
00001a  f04f0864          MOV      r8,#0x64
00001e  fb9cfcf8          SDIV     r12,r12,r8
000022  f00c02ff          AND      r2,r12,#0xff
;;;2048           if(tempB)
000026  b152              CBZ      r2,|L11.62|
;;;2049           {
;;;2050               Str[strcursor++]=tempB+0x30;
000028  f1020c30          ADD      r12,r2,#0x30
00002c  f00c09ff          AND      r9,r12,#0xff
000030  4684              MOV      r12,r0
000032  f1000801          ADD      r8,r0,#1
000036  fa1ff088          UXTH     r0,r8
00003a  f803900c          STRB     r9,[r3,r12]
                  |L11.62|
;;;2051           }
;;;2052           tempS=buf[i]%100/10;
00003e  f814c001          LDRB     r12,[r4,r1]
000042  f04f0864          MOV      r8,#0x64
000046  fb9cf9f8          SDIV     r9,r12,r8
00004a  fb08cc19          MLS      r12,r8,r9,r12
00004e  f04f080a          MOV      r8,#0xa
000052  fb9cfcf8          SDIV     r12,r12,r8
000056  f00c06ff          AND      r6,r12,#0xff
;;;2053           if(tempS||tempB)
00005a  b906              CBNZ     r6,|L11.94|
00005c  b152              CBZ      r2,|L11.116|
                  |L11.94|
;;;2054           {
;;;2055               Str[strcursor++]=tempS+0x30;
00005e  f1060c30          ADD      r12,r6,#0x30
000062  f00c09ff          AND      r9,r12,#0xff
000066  4684              MOV      r12,r0
000068  f1000801          ADD      r8,r0,#1
00006c  fa1ff088          UXTH     r0,r8
000070  f803900c          STRB     r9,[r3,r12]
                  |L11.116|
;;;2056           }
;;;2057           tempG=buf[i]%10;
000074  f814c001          LDRB     r12,[r4,r1]
000078  f04f080a          MOV      r8,#0xa
00007c  fb9cf9f8          SDIV     r9,r12,r8
000080  fb08cc19          MLS      r12,r8,r9,r12
000084  f00c07ff          AND      r7,r12,#0xff
;;;2058           if(tempS||tempB||tempG)
000088  b90e              CBNZ     r6,|L11.142|
00008a  b902              CBNZ     r2,|L11.142|
00008c  b1bf              CBZ      r7,|L11.190|
                  |L11.142|
;;;2059           {
;;;2060               Str[strcursor++]=tempG+0x30;
00008e  f1070c30          ADD      r12,r7,#0x30
000092  f00c09ff          AND      r9,r12,#0xff
000096  4684              MOV      r12,r0
000098  f1000801          ADD      r8,r0,#1
00009c  fa1ff088          UXTH     r0,r8
0000a0  f803900c          STRB     r9,[r3,r12]
;;;2061               if(i+1<member)
0000a4  f1010c01          ADD      r12,r1,#1
0000a8  45ac              CMP      r12,r5
0000aa  da08              BGE      |L11.190|
;;;2062                   Str[strcursor++]=',';
0000ac  f04f092c          MOV      r9,#0x2c
0000b0  4684              MOV      r12,r0
0000b2  f1000801          ADD      r8,r0,#1
0000b6  fa1ff088          UXTH     r0,r8
0000ba  f803900c          STRB     r9,[r3,r12]
                  |L11.190|
0000be  f1010c01          ADD      r12,r1,#1             ;2045
0000c2  fa1ff18c          UXTH     r1,r12                ;2045
                  |L11.198|
0000c6  42a9              CMP      r1,r5                 ;2045
0000c8  dba5              BLT      |L11.22|
;;;2063           }
;;;2064       }
;;;2065       return strcursor;
;;;2066   }
0000ca  e8bd83f0          POP      {r4-r9,pc}
;;;2067   
                          ENDP


                          AREA ||i.PlatformTimerExpired||, CODE, READONLY, ALIGN=2

                  PlatformTimerExpired PROC
;;;1915   //------------------------------------------------------------------------------
;;;1916   uint8_t PlatformTimerExpired ( uint8_t timer )         //定时时间到函数
000000  4601              MOV      r1,r0
;;;1917   {
;;;1918       if ( timer < etINVALID )
000002  2904              CMP      r1,#4
000004  da07              BGE      |L12.22|
;;;1919       {
;;;1920           return( gTimerCounters[ timer ] == 0);             //定时时间到时返回1
000006  4805              LDR      r0,|L12.28|
000008  f8500021          LDR      r0,[r0,r1,LSL #2]
00000c  b908              CBNZ     r0,|L12.18|
00000e  2001              MOVS     r0,#1
                  |L12.16|
;;;1921       }
;;;1922   
;;;1923       return( 0 );                                           //定时时间还没到时返回0
;;;1924   }
000010  4770              BX       lr
                  |L12.18|
000012  2000              MOVS     r0,#0                 ;1920
000014  e7fc              B        |L12.16|
                  |L12.22|
000016  2000              MOVS     r0,#0                 ;1923
000018  e7fa              B        |L12.16|
;;;1925   //========================================================================================
                          ENDP

00001a  0000              DCW      0x0000
                  |L12.28|
                          DCD      gTimerCounters

                          AREA ||i.PlatformTimerGet||, CODE, READONLY, ALIGN=2

                  PlatformTimerGet PROC
;;;1874   //------------------------------------------------------------------------------
;;;1875   u32 PlatformTimerGet(uint8_t eTimer)
000000  4601              MOV      r1,r0
;;;1876   {
;;;1877       return(gTimerCounters[eTimer]);
000002  4802              LDR      r0,|L13.12|
000004  f8500021          LDR      r0,[r0,r1,LSL #2]
;;;1878   }
000008  4770              BX       lr
;;;1879   
                          ENDP

00000a  0000              DCW      0x0000
                  |L13.12|
                          DCD      gTimerCounters

                          AREA ||i.PlatformTimerInit||, CODE, READONLY, ALIGN=2

                  PlatformTimerInit PROC
;;;1883   //------------------------------------------------------------------------------
;;;1884   void PlatformTimerInit (void)
000000  2000              MOVS     r0,#0
;;;1885   {
;;;1886       int i;
;;;1887       //initializer timer counters in array
;;;1888       for ( i = 0; i < etINVALID; i++ )
000002  e004              B        |L14.14|
                  |L14.4|
;;;1889       {
;;;1890           gTimerCounters[ i ] = 0;
000004  2100              MOVS     r1,#0
000006  4a03              LDR      r2,|L14.20|
000008  f8421020          STR      r1,[r2,r0,LSL #2]
00000c  1c40              ADDS     r0,r0,#1              ;1888
                  |L14.14|
00000e  2804              CMP      r0,#4                 ;1888
000010  dbf8              BLT      |L14.4|
;;;1891       }
;;;1892   
;;;1893       //PlatformTimerSet(etKEY_Detect,5000);
;;;1894   }
000012  4770              BX       lr
;;;1895   
                          ENDP

                  |L14.20|
                          DCD      gTimerCounters

                          AREA ||i.PlatformTimerSet||, CODE, READONLY, ALIGN=2

                  PlatformTimerSet PROC
;;;1857   //------------------------------------------------------------------------------
;;;1858   void PlatformTimerSet( uint8_t index, u32 m_sec )
000000  bf00              NOP      
;;;1859   {
;;;1860       switch ( index )
;;;1861       {
;;;1862           default:
;;;1863               if (index<etINVALID)
000002  2804              CMP      r0,#4
000004  da02              BGE      |L15.12|
;;;1864               {
;;;1865                   gTimerCounters[index] = m_sec;
000006  4a03              LDR      r2,|L15.20|
000008  f8421020          STR      r1,[r2,r0,LSL #2]
                  |L15.12|
;;;1866               }
;;;1867               break;
00000c  bf00              NOP      
00000e  bf00              NOP      
;;;1868       }
;;;1869   }
000010  4770              BX       lr
;;;1870   
                          ENDP

000012  0000              DCW      0x0000
                  |L15.20|
                          DCD      gTimerCounters

                          AREA ||i.PlatformTimerTask||, CODE, READONLY, ALIGN=2

                  PlatformTimerTask PROC
;;;1899   //------------------------------------------------------------------------------
;;;1900   void PlatformTimerTask(void)
000000  2000              MOVS     r0,#0
;;;1901   {
;;;1902       int i;
;;;1903       for(i=0;i<etINVALID;i++)
000002  e00b              B        |L16.28|
                  |L16.4|
;;;1904       {
;;;1905           if(gTimerCounters[i] > 0)
000004  4907              LDR      r1,|L16.36|
000006  f8511020          LDR      r1,[r1,r0,LSL #2]
00000a  b131              CBZ      r1,|L16.26|
;;;1906           {
;;;1907               gTimerCounters[i]--;
00000c  4905              LDR      r1,|L16.36|
00000e  f8511020          LDR      r1,[r1,r0,LSL #2]
000012  1e49              SUBS     r1,r1,#1
000014  4a03              LDR      r2,|L16.36|
000016  f8421020          STR      r1,[r2,r0,LSL #2]
                  |L16.26|
00001a  1c40              ADDS     r0,r0,#1              ;1903
                  |L16.28|
00001c  2804              CMP      r0,#4                 ;1903
00001e  dbf1              BLT      |L16.4|
;;;1908           }
;;;1909       }
;;;1910   }
000020  4770              BX       lr
;;;1911   
                          ENDP

000022  0000              DCW      0x0000
                  |L16.36|
                          DCD      gTimerCounters

                          AREA ||i.SetUserData_EdidIndexSave||, CODE, READONLY, ALIGN=2

                  SetUserData_EdidIndexSave PROC
;;;675    
;;;676    void SetUserData_EdidIndexSave(void)
000000  b570              PUSH     {r4-r6,lr}
;;;677    {
;;;678        pstProjectGlobalAllVar_t    pstPrjAllVar = &g_stPrjGloVar;
000002  4d05              LDR      r5,|L17.24|
;;;679        pstProjectGlobalSaveVar_t   pstPrjSaveVar = &pstPrjAllVar->stPrjSaveVar;
000004  462e              MOV      r6,r5
;;;680        pstEdidSelIndex_t           pstEdidIndex = &pstPrjSaveVar->stEdidSelIndex;
000006  f106040b          ADD      r4,r6,#0xb
;;;681    
;;;682        #if _ENABLE_SAVE_CURRENT_EDID
;;;683        memcpy(pstEdidIndex->u8CurEdidbuf,g_pu8It663xxEdidBuffer, 256);
;;;684        #endif
;;;685        pstEdidIndex->u8CheckSum = CRC8Calculate((uint8_t *)pstEdidIndex, ((uint8_t *)&pstEdidIndex->u8CheckSum - (uint8_t *)pstEdidIndex));
00000a  1d60              ADDS     r0,r4,#5
00000c  1b01              SUBS     r1,r0,r4
00000e  4620              MOV      r0,r4
000010  f7fffffe          BL       CRC8Calculate
000014  7160              STRB     r0,[r4,#5]
;;;686    
;;;687        #if (_EN_EEPROM_FUN_SAVE_SYS_EDID_INDEX==_MACRO_ENABLE)
;;;688        SaveUserDataToEep(eEepDataIndex_SysEdidIndex,(ADDR_EEPROM_USER_START+((uint8_t *)pstEdidIndex-(uint8_t *)pstPrjSaveVar)),(uint8_t *)pstEdidIndex,sizeof(stEdidSelIndex_t),TIME_SAVE_TO_EEPROM_IMMEDIATELY, FALSE);
;;;689        #endif
;;;690    }
000016  bd70              POP      {r4-r6,pc}
;;;691    
                          ENDP

                  |L17.24|
                          DCD      g_stPrjGloVar

                          AREA ||i.SetUserData_HDCP||, CODE, READONLY, ALIGN=2

                  SetUserData_HDCP PROC
;;;406    
;;;407    void SetUserData_HDCP(void)
000000  b570              PUSH     {r4-r6,lr}
;;;408    {
;;;409        pstProjectGlobalAllVar_t    pstPrjAllVar = &g_stPrjGloVar;
000002  4d05              LDR      r5,|L18.24|
;;;410        pstProjectGlobalSaveVar_t   pstPrjSaveVar = &pstPrjAllVar->stPrjSaveVar;
000004  462e              MOV      r6,r5
;;;411        pstHdcpStatusOutPort_t      pstHdcpStatusOp = &pstPrjSaveVar->stHdcpStatusOp;
000006  f1060409          ADD      r4,r6,#9
;;;412    
;;;413        //pstHdcpStatusOp->u8HdcpSta[u8OutIndex] = u8HdcpState;
;;;414        pstHdcpStatusOp->u8CheckSum = CRC8Calculate((uint8_t *)pstHdcpStatusOp,((uint8_t *)&pstHdcpStatusOp->u8CheckSum - (uint8_t *)pstHdcpStatusOp));
00000a  1c60              ADDS     r0,r4,#1
00000c  1b01              SUBS     r1,r0,r4
00000e  4620              MOV      r0,r4
000010  f7fffffe          BL       CRC8Calculate
000014  7060              STRB     r0,[r4,#1]
;;;415    
;;;416    #if ((_EN_EEPROM_FUN_SAVE_HDCP_STATUS==_MACRO_ENABLE))
;;;417        SaveUserDataToEep(eEepDataIndex_HdcpStatus,(ADDR_EEPROM_USER_START+((uint8_t *)pstHdcpStatusOp-(uint8_t *)pstPrjSaveVar)),(uint8_t *)pstHdcpStatusOp,sizeof(stHdcpStatusOutPort_t),TIME_SAVE_TO_EEPROM_IMMEDIATELY, FALSE);
;;;418    #endif
;;;419    }
000016  bd70              POP      {r4-r6,pc}
;;;420    
                          ENDP

                  |L18.24|
                          DCD      g_stPrjGloVar

                          AREA ||i.SetUserData_HdmiSel||, CODE, READONLY, ALIGN=2

                  SetUserData_HdmiSel PROC
;;;328    #if 1//_ENABLE_MULTI_OUTPUT_CHIP
;;;329    void SetUserData_HdmiSel(void)
000000  b57c              PUSH     {r2-r6,lr}
;;;330    {
;;;331        pstProjectGlobalAllVar_t    pstPrjAllVar = &g_stPrjGloVar;
000002  4c0b              LDR      r4,|L19.48|
;;;332        pstProjectGlobalSaveVar_t   pstPrjSaveVar = &pstPrjAllVar->stPrjSaveVar;
000004  4626              MOV      r6,r4
;;;333        pstHdmiSwitchParam_t        pstHdmiSw = &pstPrjSaveVar->stHdmiSel;
000006  4635              MOV      r5,r6
;;;334    
;;;335        //pstHdmiSw->u8SwChannel = HdmiRxSel;
;;;336        //pstHdmiSw->bAutoSwitch = isAutoMode;
;;;337        pstHdmiSw->u8CheckSum = CRC8Calculate((uint8_t *)pstHdmiSw,((uint8_t *)&pstHdmiSw->u8CheckSum - (uint8_t *)pstHdmiSw));
000008  f1050008          ADD      r0,r5,#8
00000c  1b41              SUBS     r1,r0,r5
00000e  4628              MOV      r0,r5
000010  f7fffffe          BL       CRC8Calculate
000014  7228              STRB     r0,[r5,#8]
;;;338    
;;;339        #if ((_EN_EEPROM_FUN_SAVE_HDMI_SEL==_MACRO_ENABLE)||(_EN_EEPROM_FUN_SAVE_TYPE_SWITCH_MODE==_MACRO_ENABLE))
;;;340        SaveUserDataToEep(eEepDataIndex_HdmiSel,(ADDR_EEPROM_USER_START+((uint8_t *)pstHdmiSw-(uint8_t *)pstPrjSaveVar)),(uint8_t *)pstHdmiSw,sizeof(stHdmiSwitchParam_t),TIME_SAVE_TO_EEPROM_IMMEDIATELY, FALSE);
000016  2000              MOVS     r0,#0
000018  2101              MOVS     r1,#1
00001a  e9cd1000          STRD     r1,r0,[sp,#0]
00001e  1ba8              SUBS     r0,r5,r6
000020  1c81              ADDS     r1,r0,#2
000022  2309              MOVS     r3,#9
000024  462a              MOV      r2,r5
000026  2001              MOVS     r0,#1
000028  f7fffffe          BL       SaveUserDataToEep
;;;341        #endif
;;;342    }
00002c  bd7c              POP      {r2-r6,pc}
;;;343    #else
                          ENDP

00002e  0000              DCW      0x0000
                  |L19.48|
                          DCD      g_stPrjGloVar

                          AREA ||i.SetUserData_ProjectName||, CODE, READONLY, ALIGN=2

                  SetUserData_ProjectName PROC
;;;720    
;;;721    void SetUserData_ProjectName(char *strPrjName, uint8_t len)
000000  e92d41fc          PUSH     {r2-r8,lr}
;;;722    {
000004  4607              MOV      r7,r0
000006  460d              MOV      r5,r1
;;;723        pstProjectGlobalAllVar_t    pstPrjAllVar = &g_stPrjGloVar;
000008  4e12              LDR      r6,|L20.84|
;;;724        pstProjectGlobalSaveVar_t   pstPrjSaveVar = &pstPrjAllVar->stPrjSaveVar;
00000a  46b0              MOV      r8,r6
;;;725        pstProjectNameSet_t         pstPrjNameSet = &pstPrjSaveVar->stPrjNameSet;
00000c  f1080411          ADD      r4,r8,#0x11
;;;726    
;;;727        memset(pstPrjNameSet->sPrjName, 0, SIZE_PRJ_NAME_CHARS_MAX);
000010  213c              MOVS     r1,#0x3c
000012  4620              MOV      r0,r4
000014  f7fffffe          BL       __aeabi_memclr
;;;728        memcpy(pstPrjNameSet->sPrjName, strPrjName, len);
000018  462a              MOV      r2,r5
00001a  4639              MOV      r1,r7
00001c  4620              MOV      r0,r4
00001e  f7fffffe          BL       __aeabi_memcpy
;;;729        pstPrjNameSet->m_u8Len = len;
000022  f884503c          STRB     r5,[r4,#0x3c]
;;;730    
;;;731        pstPrjNameSet->u8CheckSum = CRC8Calculate((uint8_t *)pstPrjNameSet, ((uint8_t *)&pstPrjNameSet->u8CheckSum - (uint8_t *)pstPrjNameSet));
000026  f104003d          ADD      r0,r4,#0x3d
00002a  1b01              SUBS     r1,r0,r4
00002c  4620              MOV      r0,r4
00002e  f7fffffe          BL       CRC8Calculate
000032  f884003d          STRB     r0,[r4,#0x3d]
;;;732    
;;;733        SaveUserDataToEep(eEepDataIndex_ProjectName,(ADDR_EEPROM_USER_START+((uint8_t *)pstPrjNameSet-(uint8_t *)pstPrjSaveVar)),(uint8_t *)pstPrjNameSet,sizeof(stProjectNameSet_t),TIME_SAVE_TO_EEPROM_IMMEDIATELY, FALSE);
000036  2000              MOVS     r0,#0
000038  2101              MOVS     r1,#1
00003a  e9cd1000          STRD     r1,r0,[sp,#0]
00003e  eba40008          SUB      r0,r4,r8
000042  1c81              ADDS     r1,r0,#2
000044  233e              MOVS     r3,#0x3e
000046  4622              MOV      r2,r4
000048  2003              MOVS     r0,#3
00004a  f7fffffe          BL       SaveUserDataToEep
;;;734    }
00004e  e8bd81fc          POP      {r2-r8,pc}
;;;735    
                          ENDP

000052  0000              DCW      0x0000
                  |L20.84|
                          DCD      g_stPrjGloVar

                          AREA ||i.StrToNum||, CODE, READONLY, ALIGN=1

                  StrToNum PROC
;;;2021   /*输入字符buf转成数字 返回数字*/
;;;2022   unsigned short StrToNum(char *Str,unsigned char cursor)
000000  b530              PUSH     {r4,r5,lr}
;;;2023   {
000002  4602              MOV      r2,r0
000004  460b              MOV      r3,r1
;;;2024       unsigned char i;
;;;2025       unsigned short Num=0;
000006  2000              MOVS     r0,#0
;;;2026       for(i=0;i<10;i++)
000008  2100              MOVS     r1,#0
00000a  e00d              B        |L21.40|
                  |L21.12|
;;;2027       {
;;;2028           if(i<cursor)
00000c  4299              CMP      r1,r3
00000e  da07              BGE      |L21.32|
;;;2029           {
;;;2030               //Num+=(Str[i]-0x30)*pow(10,cursor-1-i);
;;;2031               Num=Num*10+(Str[i]-0x30);
000010  5c54              LDRB     r4,[r2,r1]
000012  3c30              SUBS     r4,r4,#0x30
000014  eb000580          ADD      r5,r0,r0,LSL #2
000018  eb040445          ADD      r4,r4,r5,LSL #1
00001c  b2a0              UXTH     r0,r4
00001e  e001              B        |L21.36|
                  |L21.32|
;;;2032           }
;;;2033           else
;;;2034               Str[i]=' ';
000020  2420              MOVS     r4,#0x20
000022  5454              STRB     r4,[r2,r1]
                  |L21.36|
000024  1c4c              ADDS     r4,r1,#1              ;2026
000026  b2e1              UXTB     r1,r4                 ;2026
                  |L21.40|
000028  290a              CMP      r1,#0xa               ;2026
00002a  dbef              BLT      |L21.12|
;;;2035       }
;;;2036       return Num;
;;;2037   }
00002c  bd30              POP      {r4,r5,pc}
;;;2038   
                          ENDP


                          AREA ||i.U16ToU8MsbCovert||, CODE, READONLY, ALIGN=1

                  U16ToU8MsbCovert PROC
;;;2245   
;;;2246   u16 U16ToU8MsbCovert(pu16 arry1,pu8 arry2,u16 u16Len)
000000  b5f0              PUSH     {r4-r7,lr}
;;;2247   {
000002  4603              MOV      r3,r0
000004  460c              MOV      r4,r1
;;;2248   	u16 i;
;;;2249   	u16 l_u16RealLen=0;
000006  2000              MOVS     r0,#0
;;;2250   
;;;2251   	for(i=0;i<u16Len;i++)
000008  2100              MOVS     r1,#0
00000a  e00e              B        |L22.42|
                  |L22.12|
;;;2252   	{
;;;2253           arry2[l_u16RealLen++] = (arry1[i]>>8)&0xFF;
00000c  f8335011          LDRH     r5,[r3,r1,LSL #1]
000010  0a2f              LSRS     r7,r5,#8
000012  4605              MOV      r5,r0
000014  1c46              ADDS     r6,r0,#1
000016  b2b0              UXTH     r0,r6
000018  5567              STRB     r7,[r4,r5]
;;;2254           arry2[l_u16RealLen++] = (arry1[i])&0xFF;
00001a  f8137011          LDRB     r7,[r3,r1,LSL #1]
00001e  4605              MOV      r5,r0
000020  1c46              ADDS     r6,r0,#1
000022  b2b0              UXTH     r0,r6
000024  5567              STRB     r7,[r4,r5]
000026  1c4d              ADDS     r5,r1,#1              ;2251
000028  b2a9              UXTH     r1,r5                 ;2251
                  |L22.42|
00002a  4291              CMP      r1,r2                 ;2251
00002c  dbee              BLT      |L22.12|
;;;2255   	}
;;;2256   	return l_u16RealLen;
;;;2257   }
00002e  bdf0              POP      {r4-r7,pc}
;;;2258   
                          ENDP


                          AREA ||i.U8ToU16MsbCovert||, CODE, READONLY, ALIGN=1

                  U8ToU16MsbCovert PROC
;;;2258   
;;;2259   u16 U8ToU16MsbCovert(pu8 arry1,pu16 arry2,u16 u16Len)
000000  b570              PUSH     {r4-r6,lr}
;;;2260   {
000002  4603              MOV      r3,r0
000004  4614              MOV      r4,r2
;;;2261   	u16 i;
;;;2262   	u16 l_u16RealLen=0;
000006  2000              MOVS     r0,#0
;;;2263   
;;;2264   	for(i=0;i<u16Len;i=i+2)
000008  2200              MOVS     r2,#0
00000a  e00e              B        |L23.42|
                  |L23.12|
;;;2265   	{
;;;2266           arry2[l_u16RealLen] = arry1[i];
00000c  5c9d              LDRB     r5,[r3,r2]
00000e  f8215010          STRH     r5,[r1,r0,LSL #1]
;;;2267           arry2[l_u16RealLen] = (arry2[l_u16RealLen]<<8) | arry1[i+1];
000012  1c55              ADDS     r5,r2,#1
000014  5d5d              LDRB     r5,[r3,r5]
000016  f8116010          LDRB     r6,[r1,r0,LSL #1]
00001a  ea452506          ORR      r5,r5,r6,LSL #8
00001e  f8215010          STRH     r5,[r1,r0,LSL #1]
;;;2268           l_u16RealLen++;
000022  1c45              ADDS     r5,r0,#1
000024  b2a8              UXTH     r0,r5
000026  1c95              ADDS     r5,r2,#2              ;2264
000028  b2aa              UXTH     r2,r5                 ;2264
                  |L23.42|
00002a  42a2              CMP      r2,r4                 ;2264
00002c  dbee              BLT      |L23.12|
;;;2269   	}
;;;2270   	return l_u16RealLen;
;;;2271   }
00002e  bd70              POP      {r4-r6,pc}
;;;2272   
                          ENDP


                          AREA ||i.bubble_sort||, CODE, READONLY, ALIGN=1

                  bubble_sort PROC
;;;2117   //  mode = 0   low->high
;;;2118   void bubble_sort(u8* a, u8 n,u8 mode)
000000  b5f0              PUSH     {r4-r7,lr}
;;;2119   {
000002  4603              MOV      r3,r0
000004  4614              MOV      r4,r2
;;;2120       u8 i, j, temp;
;;;2121       for (j = 0; j < n - 1; j++)
000006  2200              MOVS     r2,#0
000008  e021              B        |L24.78|
                  |L24.10|
;;;2122           for (i = 0; i < n - 1 - j; i++)
00000a  2000              MOVS     r0,#0
00000c  e019              B        |L24.66|
                  |L24.14|
;;;2123           {
;;;2124               if(!mode)
00000e  b95c              CBNZ     r4,|L24.40|
;;;2125               {
;;;2126                   if(a[i] > a[i + 1])
000010  5c1f              LDRB     r7,[r3,r0]
000012  1c46              ADDS     r6,r0,#1
000014  5d9e              LDRB     r6,[r3,r6]
000016  42b7              CMP      r7,r6
000018  dd11              BLE      |L24.62|
;;;2127                   {
;;;2128                       temp = a[i];
00001a  5c1d              LDRB     r5,[r3,r0]
;;;2129                       a[i] = a[i + 1];
00001c  1c46              ADDS     r6,r0,#1
00001e  5d9e              LDRB     r6,[r3,r6]
000020  541e              STRB     r6,[r3,r0]
;;;2130                       a[i + 1] = temp;
000022  1c46              ADDS     r6,r0,#1
000024  559d              STRB     r5,[r3,r6]
000026  e00a              B        |L24.62|
                  |L24.40|
;;;2131                   }
;;;2132               }
;;;2133               else
;;;2134               {
;;;2135                   if(a[i] < a[i + 1])
000028  5c1f              LDRB     r7,[r3,r0]
00002a  1c46              ADDS     r6,r0,#1
00002c  5d9e              LDRB     r6,[r3,r6]
00002e  42b7              CMP      r7,r6
000030  da05              BGE      |L24.62|
;;;2136                   {
;;;2137                       temp = a[i];
000032  5c1d              LDRB     r5,[r3,r0]
;;;2138                       a[i] = a[i + 1];
000034  1c46              ADDS     r6,r0,#1
000036  5d9e              LDRB     r6,[r3,r6]
000038  541e              STRB     r6,[r3,r0]
;;;2139                       a[i + 1] = temp;
00003a  1c46              ADDS     r6,r0,#1
00003c  559d              STRB     r5,[r3,r6]
                  |L24.62|
00003e  1c46              ADDS     r6,r0,#1              ;2122
000040  b2f0              UXTB     r0,r6                 ;2122
                  |L24.66|
000042  1e4e              SUBS     r6,r1,#1              ;2122
000044  1ab6              SUBS     r6,r6,r2              ;2122
000046  4286              CMP      r6,r0                 ;2122
000048  dce1              BGT      |L24.14|
00004a  1c56              ADDS     r6,r2,#1              ;2121
00004c  b2f2              UXTB     r2,r6                 ;2121
                  |L24.78|
00004e  1e4e              SUBS     r6,r1,#1              ;2121
000050  4296              CMP      r6,r2                 ;2121
000052  dcda              BGT      |L24.10|
;;;2140                   }
;;;2141               }
;;;2142           }
;;;2143   }
000054  bdf0              POP      {r4-r7,pc}
;;;2144   
                          ENDP


                          AREA ||i.buffer_compare||, CODE, READONLY, ALIGN=1

                  buffer_compare PROC
;;;2229   
;;;2230   bool buffer_compare(pu8 arry1,pu8 arry2,u16 u16Len)
000000  b570              PUSH     {r4-r6,lr}
;;;2231   {
000002  4603              MOV      r3,r0
000004  460c              MOV      r4,r1
;;;2232   	u16 i;
;;;2233   	bool ret=TRUE;
000006  2001              MOVS     r0,#1
;;;2234   
;;;2235   	for(i=0;i<u16Len;i++)
000008  2100              MOVS     r1,#0
00000a  e007              B        |L25.28|
                  |L25.12|
;;;2236   	{
;;;2237   		if(*(arry1+i) != *(arry2+i))
00000c  5c5d              LDRB     r5,[r3,r1]
00000e  5c66              LDRB     r6,[r4,r1]
000010  42b5              CMP      r5,r6
000012  d001              BEQ      |L25.24|
;;;2238   		{
;;;2239   			ret = FALSE;
000014  2000              MOVS     r0,#0
;;;2240   			break;
000016  e003              B        |L25.32|
                  |L25.24|
000018  1c4d              ADDS     r5,r1,#1              ;2235
00001a  b2a9              UXTH     r1,r5                 ;2235
                  |L25.28|
00001c  4291              CMP      r1,r2                 ;2235
00001e  dbf5              BLT      |L25.12|
                  |L25.32|
000020  bf00              NOP      
;;;2241   		}
;;;2242   	}
;;;2243   	return ret;
;;;2244   }
000022  bd70              POP      {r4-r6,pc}
;;;2245   
                          ENDP


                          AREA ||i.isGetHpdDetConnect||, CODE, READONLY, ALIGN=2

                  isGetHpdDetConnect PROC
;;;757    
;;;758    bool isGetHpdDetConnect(uint8_t u8RxIndex)
000000  b570              PUSH     {r4-r6,lr}
;;;759    {
000002  4605              MOV      r5,r0
;;;760        pstRxHpdDetDeclare_t pstRxHpd = (pstRxHpdDetDeclare_t)&stProjectRxHpdDetTable[u8RxIndex];
000004  4814              LDR      r0,|L26.88|
000006  eb000485          ADD      r4,r0,r5,LSL #2
;;;761    
;;;762        if((pstRxHpd->pstDetPort->u8PortType>=PORT_GPIOA)&&(pstRxHpd->pstDetPort->u8PortType<=PORT_GPIOG))
00000a  6820              LDR      r0,[r4,#0]
00000c  7800              LDRB     r0,[r0,#0]
00000e  2801              CMP      r0,#1
000010  db1f              BLT      |L26.82|
000012  6820              LDR      r0,[r4,#0]
000014  7800              LDRB     r0,[r0,#0]
000016  2807              CMP      r0,#7
000018  dc1b              BGT      |L26.82|
;;;763        {
;;;764            if(pstRxHpd->pstDetPort->eInitLevel == ePinLevel_High)
00001a  6820              LDR      r0,[r4,#0]
00001c  7940              LDRB     r0,[r0,#5]
00001e  2801              CMP      r0,#1
000020  d10b              BNE      |L26.58|
;;;765            {
;;;766                //if((STM32_GPIO_PORT[pstRxHpd->pstDetPort->u8PortType-PORT_GPIOA]->IDR & pstRxHpd->pstDetPort->u16GpioPin) == pstRxHpd->pstDetPort->u16GpioPin)
;;;767                if(GPIO_ReadInputDataBit(STM32_GPIO_PORT[pstRxHpd->pstDetPort->u8PortType-PORT_GPIOA],pstRxHpd->pstDetPort->u16GpioPin))
000022  6822              LDR      r2,[r4,#0]
000024  8851              LDRH     r1,[r2,#2]
000026  7812              LDRB     r2,[r2,#0]
000028  1e52              SUBS     r2,r2,#1
00002a  4b0c              LDR      r3,|L26.92|
00002c  f8530022          LDR      r0,[r3,r2,LSL #2]
000030  f7fffffe          BL       GPIO_ReadInputDataBit
000034  b168              CBZ      r0,|L26.82|
;;;768                {
;;;769                    return TRUE;
000036  2001              MOVS     r0,#1
                  |L26.56|
;;;770                }
;;;771            }
;;;772            else
;;;773            {
;;;774                //if((STM32_GPIO_PORT[pstRxHpd->pstDetPort->u8PortType-PORT_GPIOA]->IDR & pstRxHpd->pstDetPort->u16GpioPin) == 0)
;;;775                if(GPIO_ReadInputDataBit(STM32_GPIO_PORT[pstRxHpd->pstDetPort->u8PortType-PORT_GPIOA],pstRxHpd->pstDetPort->u16GpioPin)==0)
;;;776                {
;;;777                    return TRUE;
;;;778                }
;;;779            }
;;;780        }
;;;781    
;;;782        return FALSE;
;;;783    }
000038  bd70              POP      {r4-r6,pc}
                  |L26.58|
00003a  6822              LDR      r2,[r4,#0]            ;775
00003c  8851              LDRH     r1,[r2,#2]            ;775
00003e  7812              LDRB     r2,[r2,#0]            ;775
000040  1e52              SUBS     r2,r2,#1              ;775
000042  4b06              LDR      r3,|L26.92|
000044  f8530022          LDR      r0,[r3,r2,LSL #2]     ;775
000048  f7fffffe          BL       GPIO_ReadInputDataBit
00004c  b908              CBNZ     r0,|L26.82|
00004e  2001              MOVS     r0,#1                 ;777
000050  e7f2              B        |L26.56|
                  |L26.82|
000052  2000              MOVS     r0,#0                 ;782
000054  e7f0              B        |L26.56|
;;;784    
                          ENDP

000056  0000              DCW      0x0000
                  |L26.88|
                          DCD      stProjectRxHpdDetTable
                  |L26.92|
                          DCD      STM32_GPIO_PORT

                          AREA ||i.isNumberCmd||, CODE, READONLY, ALIGN=1

                  isNumberCmd PROC
;;;1836   //------------------------------------------------------------------------------
;;;1837   bool isNumberCmd(char *cmd, uint16_t len)
000000  4602              MOV      r2,r0
;;;1838   {
000002  460b              MOV      r3,r1
;;;1839       uint16_t i;
;;;1840   
;;;1841       for(i=0; i<len; i++)
000004  2100              MOVS     r1,#0
000006  e009              B        |L27.28|
                  |L27.8|
;;;1842       {
;;;1843           if((cmd[i]<'0')||(cmd[i]>'9'))
000008  5c50              LDRB     r0,[r2,r1]
00000a  2830              CMP      r0,#0x30
00000c  db02              BLT      |L27.20|
00000e  5c50              LDRB     r0,[r2,r1]
000010  2839              CMP      r0,#0x39
000012  dd01              BLE      |L27.24|
                  |L27.20|
;;;1844           {
;;;1845               return FALSE;
000014  2000              MOVS     r0,#0
                  |L27.22|
;;;1846           }
;;;1847       }
;;;1848   
;;;1849       return TRUE;
;;;1850   }
000016  4770              BX       lr
                  |L27.24|
000018  1c48              ADDS     r0,r1,#1              ;1841
00001a  b281              UXTH     r1,r0                 ;1841
                  |L27.28|
00001c  4299              CMP      r1,r3                 ;1841
00001e  dbf3              BLT      |L27.8|
000020  2001              MOVS     r0,#1                 ;1849
000022  e7f8              B        |L27.22|
;;;1851   
                          ENDP


                          AREA ||i.isRxHpdDetNull||, CODE, READONLY, ALIGN=2

                  isRxHpdDetNull PROC
;;;736    
;;;737    bool isRxHpdDetNull(uint8_t u8RxIndex)
000000  b510              PUSH     {r4,lr}
;;;738    {
000002  4601              MOV      r1,r0
;;;739        uint8_t u8TblElmtNum = 0;
000004  2200              MOVS     r2,#0
;;;740        pstRxHpdDetDeclare_t pstRxHpd, pstRxHpdOrg = (pstRxHpdDetDeclare_t)&stProjectRxHpdDetTable[0];
000006  4c0c              LDR      r4,|L28.56|
;;;741    
;;;742        pstRxHpd = pstRxHpdOrg;
000008  4623              MOV      r3,r4
;;;743        while(pstRxHpd->pstDetPort != NULL)
00000a  e002              B        |L28.18|
                  |L28.12|
;;;744        {
;;;745            u8TblElmtNum ++;
00000c  1c50              ADDS     r0,r2,#1
00000e  b2c2              UXTB     r2,r0
;;;746            pstRxHpd ++;
000010  1d1b              ADDS     r3,r3,#4
                  |L28.18|
000012  6818              LDR      r0,[r3,#0]            ;743
000014  2800              CMP      r0,#0                 ;743
000016  d1f9              BNE      |L28.12|
;;;747        }
;;;748    
;;;749        if(u8TblElmtNum == 0) return TRUE;
000018  b90a              CBNZ     r2,|L28.30|
00001a  2001              MOVS     r0,#1
                  |L28.28|
;;;750        if(u8RxIndex >= u8TblElmtNum) return TRUE;
;;;751    
;;;752        pstRxHpd = pstRxHpdOrg + u8RxIndex;
;;;753        if(pstRxHpd->pstDetPort == NULL) return TRUE;
;;;754    
;;;755        return FALSE;
;;;756    }
00001c  bd10              POP      {r4,pc}
                  |L28.30|
00001e  4291              CMP      r1,r2                 ;750
000020  db01              BLT      |L28.38|
000022  2001              MOVS     r0,#1                 ;750
000024  e7fa              B        |L28.28|
                  |L28.38|
000026  eb040381          ADD      r3,r4,r1,LSL #2       ;752
00002a  6818              LDR      r0,[r3,#0]            ;753
00002c  b908              CBNZ     r0,|L28.50|
00002e  2001              MOVS     r0,#1                 ;753
000030  e7f4              B        |L28.28|
                  |L28.50|
000032  2000              MOVS     r0,#0                 ;755
000034  e7f2              B        |L28.28|
;;;757    
                          ENDP

000036  0000              DCW      0x0000
                  |L28.56|
                          DCD      stProjectRxHpdDetTable

                          AREA ||i.is_edid_compare_same||, CODE, READONLY, ALIGN=1

                  is_edid_compare_same PROC
;;;207    
;;;208    bool is_edid_compare_same(iTE_pu8 arry1,iTE_pu8 arry2)
000000  b530              PUSH     {r4,r5,lr}
;;;209    {
000002  4602              MOV      r2,r0
000004  460b              MOV      r3,r1
;;;210        iTE_u16 i;
;;;211        bool ret=TRUE;
000006  2001              MOVS     r0,#1
;;;212    
;;;213        for(i=0;i<256;i++)  // 127
000008  2100              MOVS     r1,#0
00000a  e007              B        |L29.28|
                  |L29.12|
;;;214        {
;;;215            if(*(arry1+i) != *(arry2+i))
00000c  5c54              LDRB     r4,[r2,r1]
00000e  5c5d              LDRB     r5,[r3,r1]
000010  42ac              CMP      r4,r5
000012  d001              BEQ      |L29.24|
;;;216            {
;;;217                ret = FALSE;
000014  2000              MOVS     r0,#0
;;;218                break;
000016  e003              B        |L29.32|
                  |L29.24|
000018  1c4c              ADDS     r4,r1,#1              ;213
00001a  b2a1              UXTH     r1,r4                 ;213
                  |L29.28|
00001c  29ff              CMP      r1,#0xff              ;213
00001e  ddf5              BLE      |L29.12|
                  |L29.32|
000020  bf00              NOP      
;;;219            }
;;;220        }
;;;221        return ret;
;;;222    }
000022  bd30              POP      {r4,r5,pc}
;;;223    
                          ENDP


                          AREA ||i.is_edid_valid||, CODE, READONLY, ALIGN=1

                  is_edid_valid PROC
;;;133    
;;;134    bool is_edid_valid(iTE_u8 *edid_table)
000000  4601              MOV      r1,r0
;;;135    {
;;;136        if((edid_table[0]==0x00)&&(edid_table[1]==0xFF)&&(edid_table[2]==0xFF)&&\
000002  7808              LDRB     r0,[r1,#0]
000004  b9a8              CBNZ     r0,|L30.50|
000006  7848              LDRB     r0,[r1,#1]
000008  28ff              CMP      r0,#0xff
00000a  d112              BNE      |L30.50|
00000c  7888              LDRB     r0,[r1,#2]
00000e  28ff              CMP      r0,#0xff
000010  d10f              BNE      |L30.50|
;;;137            (edid_table[3]==0xFF)&&(edid_table[4]==0xFF)&&(edid_table[5]==0xFF)&&\
000012  78c8              LDRB     r0,[r1,#3]
000014  28ff              CMP      r0,#0xff
000016  d10c              BNE      |L30.50|
000018  7908              LDRB     r0,[r1,#4]
00001a  28ff              CMP      r0,#0xff
00001c  d109              BNE      |L30.50|
00001e  7948              LDRB     r0,[r1,#5]
000020  28ff              CMP      r0,#0xff
000022  d106              BNE      |L30.50|
;;;138            (edid_table[6]==0xFF)&&(edid_table[7]==0x00))
000024  7988              LDRB     r0,[r1,#6]
000026  28ff              CMP      r0,#0xff
000028  d103              BNE      |L30.50|
00002a  79c8              LDRB     r0,[r1,#7]
00002c  b908              CBNZ     r0,|L30.50|
;;;139        {
;;;140            return TRUE;
00002e  2001              MOVS     r0,#1
                  |L30.48|
;;;141        }
;;;142    
;;;143        return FALSE;
;;;144    }
000030  4770              BX       lr
                  |L30.50|
000032  2000              MOVS     r0,#0                 ;143
000034  e7fc              B        |L30.48|
;;;145    
                          ENDP


                          AREA ||i.mapp_CopyEdidPhysicalAddress||, CODE, READONLY, ALIGN=1

                  mapp_CopyEdidPhysicalAddress PROC
;;;1732   
;;;1733   bool mapp_CopyEdidPhysicalAddress(u8 *pu8InEdidBuf,u8 *pu8OutEdidBuf)
000000  b5f0              PUSH     {r4-r7,lr}
;;;1734   {
000002  4603              MOV      r3,r0
000004  460a              MOV      r2,r1
;;;1735       u8 i,j;
;;;1736       u16 l_u16PhyAddr = 0;
000006  2500              MOVS     r5,#0
;;;1737       bool l_bRetSta = FALSE;
000008  2000              MOVS     r0,#0
;;;1738       u8 l_u8CheckSum = 0;
00000a  2600              MOVS     r6,#0
;;;1739   
;;;1740       if((pu8InEdidBuf[0x7E] != 0)&&(pu8OutEdidBuf[0x7E] != 0))
00000c  f893707e          LDRB     r7,[r3,#0x7e]
000010  2f00              CMP      r7,#0
000012  d05c              BEQ      |L31.206|
000014  f892707e          LDRB     r7,[r2,#0x7e]
000018  2f00              CMP      r7,#0
00001a  d058              BEQ      |L31.206|
;;;1741       {
;;;1742           for(i=0; i<128;i++)
00001c  2100              MOVS     r1,#0
00001e  e01f              B        |L31.96|
                  |L31.32|
;;;1743           {
;;;1744               if((pu8InEdidBuf[0x80+i]&0xE0)==0x60)
000020  f1010780          ADD      r7,r1,#0x80
000024  5ddf              LDRB     r7,[r3,r7]
000026  f00707e0          AND      r7,r7,#0xe0
00002a  2f60              CMP      r7,#0x60
00002c  d116              BNE      |L31.92|
;;;1745               {
;;;1746                   if((pu8InEdidBuf[0x80+i+1]==0x03)
00002e  f1010781          ADD      r7,r1,#0x81
000032  5ddf              LDRB     r7,[r3,r7]
000034  2f03              CMP      r7,#3
000036  d111              BNE      |L31.92|
;;;1747                       &&(pu8InEdidBuf[0x80+i+2]==0x0C)
000038  f1010782          ADD      r7,r1,#0x82
00003c  5ddf              LDRB     r7,[r3,r7]
00003e  2f0c              CMP      r7,#0xc
000040  d10c              BNE      |L31.92|
;;;1748                       &&(pu8InEdidBuf[0x80+i+3]==0x00))
000042  f1010783          ADD      r7,r1,#0x83
000046  5ddf              LDRB     r7,[r3,r7]
000048  b947              CBNZ     r7,|L31.92|
;;;1749                   {
;;;1750                       l_u16PhyAddr = (pu8InEdidBuf[0x80+i+4]<<8)|(pu8InEdidBuf[0x80+i+5]);
00004a  f1010785          ADD      r7,r1,#0x85
00004e  f813c007          LDRB     r12,[r3,r7]
000052  1e7f              SUBS     r7,r7,#1
000054  5ddf              LDRB     r7,[r3,r7]
000056  ea4c2507          ORR      r5,r12,r7,LSL #8
;;;1751                       break;
00005a  e003              B        |L31.100|
                  |L31.92|
00005c  1c4f              ADDS     r7,r1,#1              ;1742
00005e  b2f9              UXTB     r1,r7                 ;1742
                  |L31.96|
000060  2980              CMP      r1,#0x80              ;1742
000062  dbdd              BLT      |L31.32|
                  |L31.100|
000064  bf00              NOP      
;;;1752                   }
;;;1753               }
;;;1754           }
;;;1755   
;;;1756           for(i=0; i<128;i++)
000066  2100              MOVS     r1,#0
000068  e02e              B        |L31.200|
                  |L31.106|
;;;1757           {
;;;1758               if((pu8OutEdidBuf[0x80+i]&0xE0)==0x60)
00006a  f1010780          ADD      r7,r1,#0x80
00006e  5dd7              LDRB     r7,[r2,r7]
000070  f00707e0          AND      r7,r7,#0xe0
000074  2f60              CMP      r7,#0x60
000076  d125              BNE      |L31.196|
;;;1759               {
;;;1760                   if((pu8OutEdidBuf[0x80+i+1]==0x03)
000078  f1010781          ADD      r7,r1,#0x81
00007c  5dd7              LDRB     r7,[r2,r7]
00007e  2f03              CMP      r7,#3
000080  d120              BNE      |L31.196|
;;;1761                       &&(pu8OutEdidBuf[0x80+i+2]==0x0C)
000082  f1010782          ADD      r7,r1,#0x82
000086  5dd7              LDRB     r7,[r2,r7]
000088  2f0c              CMP      r7,#0xc
00008a  d11b              BNE      |L31.196|
;;;1762                       &&(pu8OutEdidBuf[0x80+i+3]==0x00))
00008c  f1010783          ADD      r7,r1,#0x83
000090  5dd7              LDRB     r7,[r2,r7]
000092  b9bf              CBNZ     r7,|L31.196|
;;;1763                   {
;;;1764                       //l_u16PhyAddr = (pu8InEdidBuf[0x80+i+4]<<8)|(pu8InEdidBuf[0x80+i+5]);
;;;1765                       pu8OutEdidBuf[0x80+i+4] = (u8)((l_u16PhyAddr>>8)&0xFF);
000094  ea4f2c15          LSR      r12,r5,#8
000098  f1010784          ADD      r7,r1,#0x84
00009c  f802c007          STRB     r12,[r2,r7]
;;;1766                       pu8OutEdidBuf[0x80+i+5] = (u8)(l_u16PhyAddr&0xFF);
0000a0  1c7f              ADDS     r7,r7,#1
0000a2  55d5              STRB     r5,[r2,r7]
;;;1767   
;;;1768                       for(j=0;j<127;j++)
0000a4  2400              MOVS     r4,#0
0000a6  e006              B        |L31.182|
                  |L31.168|
;;;1769                       {
;;;1770                           l_u8CheckSum += pu8OutEdidBuf[0x80+j];
0000a8  f1040780          ADD      r7,r4,#0x80
0000ac  5dd7              LDRB     r7,[r2,r7]
0000ae  4437              ADD      r7,r7,r6
0000b0  b2fe              UXTB     r6,r7
0000b2  1c67              ADDS     r7,r4,#1              ;1768
0000b4  b2fc              UXTB     r4,r7                 ;1768
                  |L31.182|
0000b6  2c7f              CMP      r4,#0x7f              ;1768
0000b8  dbf6              BLT      |L31.168|
;;;1771                       }
;;;1772                       pu8OutEdidBuf[0x80+0x7F] = 0x100-l_u8CheckSum;
0000ba  4277              RSBS     r7,r6,#0
0000bc  f88270ff          STRB     r7,[r2,#0xff]
;;;1773                       l_bRetSta = TRUE;
0000c0  2001              MOVS     r0,#1
;;;1774                       break;
0000c2  e003              B        |L31.204|
                  |L31.196|
0000c4  1c4f              ADDS     r7,r1,#1              ;1756
0000c6  b2f9              UXTB     r1,r7                 ;1756
                  |L31.200|
0000c8  2980              CMP      r1,#0x80              ;1756
0000ca  dbce              BLT      |L31.106|
                  |L31.204|
0000cc  bf00              NOP      
                  |L31.206|
;;;1775                   }
;;;1776               }
;;;1777           }
;;;1778       }
;;;1779   
;;;1780       return l_bRetSta;
;;;1781   }
0000ce  bdf0              POP      {r4-r7,pc}
;;;1782   
                          ENDP


                          AREA ||i.mapp_EdidLimitTo1080p60||, CODE, READONLY, ALIGN=2

                  mapp_EdidLimitTo1080p60 PROC
;;;1591   ***************************************************/
;;;1592   bool mapp_EdidLimitTo1080p60(u8 *u8pInEdid,
000000  e92d41f0          PUSH     {r4-r8,lr}
;;;1593                                       u8 *u8pOutEdid,
;;;1594                                       u16 u16len)
;;;1595   {
000004  b0a6              SUB      sp,sp,#0x98
000006  4607              MOV      r7,r0
000008  460c              MOV      r4,r1
00000a  4690              MOV      r8,r2
;;;1596       u8 i;
;;;1597       u8 l_u8CheckSum=0;
00000c  2600              MOVS     r6,#0
;;;1598       uint8_t const l_u8DefaultEdidTiming[18] = //4k@30, 297M
00000e  2214              MOVS     r2,#0x14
000010  a130              ADR      r1,|L32.212|
000012  a821              ADD      r0,sp,#0x84
000014  f7fffffe          BL       __aeabi_memcpy4
;;;1599       {
;;;1600           0x02, 0x3A, 0x80, 0x18, 0x71, 0x38, 0x2D, 0x40, 0x58,
;;;1601           0x2C, 0x45, 0x00, 0x20, 0xC2, 0x31, 0x00, 0x00, 0x1E
;;;1602       };
;;;1603   
;;;1604       if(is_edid_valid(u8pInEdid) == FALSE)
000018  4638              MOV      r0,r7
00001a  f7fffffe          BL       is_edid_valid
00001e  b918              CBNZ     r0,|L32.40|
;;;1605       {
;;;1606           return false;
000020  2000              MOVS     r0,#0
                  |L32.34|
;;;1607       }
;;;1608       memcpy(u8pOutEdid,u8pInEdid,u16len);
;;;1609   
;;;1610       // block 0
;;;1611       #if _CLR_SAMSUN_EDID_SERIAL_NUM
;;;1612       if(u8pOutEdid[0x08]==0x4C&&u8pOutEdid[0x09]==0x2D)  // if ID is SAM, Change the ID serial number 00000000
;;;1613       {
;;;1614           u8pOutEdid[0x0C]=0x00;
;;;1615           u8pOutEdid[0x0D]=0x00;
;;;1616           u8pOutEdid[0x0E]=0x00;
;;;1617           u8pOutEdid[0x0F]=0x00;
;;;1618       }
;;;1619       #endif
;;;1620   
;;;1621   //    if((((((u8pOutEdid[0x3A]>>4)<<8)|(u8pOutEdid[0x38]))==3840)
;;;1622   //        ||((((u8pOutEdid[0x3A]>>4)<<8)|(u8pOutEdid[0x38]))==4096))
;;;1623   //        &&((((u8pOutEdid[0x3D]>>4)<<8)|(u8pOutEdid[0x3B]))==2160))
;;;1624       {
;;;1625           if(((u8pOutEdid[0x37]<<8)|(u8pOutEdid[0x36]))>16500)
;;;1626           {
;;;1627               for(i=0;i<18;i++)
;;;1628               {
;;;1629                   u8pOutEdid[0x36+i] = l_u8DefaultEdidTiming[i];
;;;1630               }
;;;1631           }
;;;1632       }
;;;1633   
;;;1634       #if 0
;;;1635       for(i=0x49;i<127;i++)
;;;1636       {
;;;1637           if((u8pOutEdid[i]==0x00)&&(u8pOutEdid[i+1]==0x00)&&(u8pOutEdid[i+2]==0x00)&&(u8pOutEdid[i+3]==0xFD))
;;;1638           {
;;;1639               if(u8pOutEdid[i+9]>0x1E)
;;;1640               {
;;;1641                   u8pOutEdid[i+9] = 0x1E;
;;;1642               }
;;;1643           }
;;;1644       }
;;;1645       #endif
;;;1646   
;;;1647   #if _SET_RANGE_LIMITS_BLOCK
;;;1648       for(i=0x49;i<127;i++)
;;;1649       {
;;;1650           if((u8pOutEdid[i]==0x00)&&(u8pOutEdid[i+1]==0x00)&&(u8pOutEdid[i+2]==0x00)&&(u8pOutEdid[i+3]==0xFD))
;;;1651           {
;;;1652               if(u8pOutEdid[i+5]>0x17)
;;;1653               {
;;;1654                   u8pOutEdid[i+5] = 0x17;
;;;1655               }
;;;1656               //if(u8pOutEdid[i+6]>0x55)
;;;1657               //{
;;;1658               //    u8pOutEdid[i+6] = 0x55;
;;;1659               //}
;;;1660               if(u8pOutEdid[i+7]>0x0F)
;;;1661               {
;;;1662                   u8pOutEdid[i+7] = 0x0F;
;;;1663               }
;;;1664               //if(u8pOutEdid[i+8]>0x5C)
;;;1665               //{
;;;1666               //    u8pOutEdid[i+8] = 0x5C;
;;;1667               //}
;;;1668               if(u8pOutEdid[i+9]>0x1E)
;;;1669               {
;;;1670                   u8pOutEdid[i+9] = 0x1E;
;;;1671               }
;;;1672           }
;;;1673       }
;;;1674   #endif
;;;1675   
;;;1676       for(i=0;i<127;i++)
;;;1677       {
;;;1678           l_u8CheckSum += u8pOutEdid[i];
;;;1679       }
;;;1680       u8pOutEdid[0x7F] = 0x100-l_u8CheckSum;
;;;1681   
;;;1682       // block 1
;;;1683       if((u8pOutEdid[0x7E]>0)&&(u16len>128))
;;;1684       {
;;;1685           const u8 cl_u8EdidCeaBlockDefault[128]={
;;;1686                   0x02, 0x03, 0x23, 0x72, 0x4B, 0x90, 0x9F, 0x22, 0x21, 0x20, 0x05, 0x14, 0x04, 0x13, 0x12, 0x03,
;;;1687                   0x23, 0x09, 0x1F, 0x07, 0x83, 0x01, 0x00, 0x00, 0x67, 0x03, 0x0C, 0x00, 0x10, 0x00, 0x00, 0x20,
;;;1688                   0xE2, 0x00, 0x0F, 0x00, 0x00, 0x00, 0x00, 0x00, 0x00, 0x00, 0x00, 0x00, 0x00, 0x00, 0x00, 0x00,
;;;1689                   0x00, 0x00, 0x00, 0x00, 0x00, 0x00, 0x00, 0x00, 0x00, 0x00, 0x00, 0x00, 0x00, 0x00, 0x00, 0x00,
;;;1690                   0x00, 0x00, 0x00, 0x00, 0x00, 0x00, 0x00, 0x00, 0x00, 0x00, 0x00, 0x00, 0x00, 0x00, 0x00, 0x00,
;;;1691                   0x00, 0x00, 0x00, 0x00, 0x00, 0x00, 0x00, 0x00, 0x00, 0x00, 0x00, 0x00, 0x00, 0x00, 0x00, 0x00,
;;;1692                   0x00, 0x00, 0x00, 0x00, 0x00, 0x00, 0x00, 0x00, 0x00, 0x00, 0x00, 0x00, 0x00, 0x00, 0x00, 0x00,
;;;1693                   0x00, 0x00, 0x00, 0x00, 0x00, 0x00, 0x00, 0x00, 0x00, 0x00, 0x00, 0x00, 0x00, 0x00, 0x00, 0xD7,
;;;1694               };
;;;1695           memcpy(&u8pOutEdid[0x80],cl_u8EdidCeaBlockDefault,128);
;;;1696           l_u8CheckSum = 0;
;;;1697           for(i=0;i<127;i++)
;;;1698           {
;;;1699               l_u8CheckSum += u8pOutEdid[i+0x80];
;;;1700           }
;;;1701           u8pOutEdid[0x7F+0x80] = 0x100-l_u8CheckSum;
;;;1702       }
;;;1703   
;;;1704       return true;
;;;1705   }
000022  b026              ADD      sp,sp,#0x98
000024  e8bd81f0          POP      {r4-r8,pc}
                  |L32.40|
000028  4642              MOV      r2,r8                 ;1608
00002a  4639              MOV      r1,r7                 ;1608
00002c  4620              MOV      r0,r4                 ;1608
00002e  f7fffffe          BL       __aeabi_memcpy
000032  7a20              LDRB     r0,[r4,#8]            ;1612
000034  284c              CMP      r0,#0x4c              ;1612
000036  d107              BNE      |L32.72|
000038  7a60              LDRB     r0,[r4,#9]            ;1612
00003a  282d              CMP      r0,#0x2d              ;1612
00003c  d104              BNE      |L32.72|
00003e  2000              MOVS     r0,#0                 ;1614
000040  7320              STRB     r0,[r4,#0xc]          ;1614
000042  7360              STRB     r0,[r4,#0xd]          ;1615
000044  73a0              STRB     r0,[r4,#0xe]          ;1616
000046  73e0              STRB     r0,[r4,#0xf]          ;1617
                  |L32.72|
000048  f8940036          LDRB     r0,[r4,#0x36]         ;1625
00004c  f8941037          LDRB     r1,[r4,#0x37]         ;1625
000050  ea402001          ORR      r0,r0,r1,LSL #8       ;1625
000054  f2440174          MOV      r1,#0x4074            ;1625
000058  4288              CMP      r0,r1                 ;1625
00005a  dd0a              BLE      |L32.114|
00005c  2500              MOVS     r5,#0                 ;1627
00005e  e006              B        |L32.110|
                  |L32.96|
000060  a821              ADD      r0,sp,#0x84           ;1629
000062  5d41              LDRB     r1,[r0,r5]            ;1629
000064  f1050036          ADD      r0,r5,#0x36           ;1629
000068  5421              STRB     r1,[r4,r0]            ;1629
00006a  1c68              ADDS     r0,r5,#1              ;1627
00006c  b2c5              UXTB     r5,r0                 ;1627
                  |L32.110|
00006e  2d12              CMP      r5,#0x12              ;1627
000070  dbf6              BLT      |L32.96|
                  |L32.114|
000072  2500              MOVS     r5,#0                 ;1676
000074  e004              B        |L32.128|
                  |L32.118|
000076  5d60              LDRB     r0,[r4,r5]            ;1678
000078  4430              ADD      r0,r0,r6              ;1678
00007a  b2c6              UXTB     r6,r0                 ;1678
00007c  1c68              ADDS     r0,r5,#1              ;1676
00007e  b2c5              UXTB     r5,r0                 ;1676
                  |L32.128|
000080  2d7f              CMP      r5,#0x7f              ;1676
000082  dbf8              BLT      |L32.118|
000084  4270              RSBS     r0,r6,#0              ;1680
000086  f884007f          STRB     r0,[r4,#0x7f]         ;1680
00008a  f894007e          LDRB     r0,[r4,#0x7e]         ;1683
00008e  2800              CMP      r0,#0                 ;1683
000090  dd1d              BLE      |L32.206|
000092  f1b80f80          CMP      r8,#0x80              ;1683
000096  dd1a              BLE      |L32.206|
000098  2280              MOVS     r2,#0x80              ;1685
00009a  4913              LDR      r1,|L32.232|
00009c  a801              ADD      r0,sp,#4              ;1685
00009e  f7fffffe          BL       __aeabi_memcpy4
0000a2  2280              MOVS     r2,#0x80              ;1695
0000a4  a901              ADD      r1,sp,#4              ;1695
0000a6  f1040080          ADD      r0,r4,#0x80           ;1695
0000aa  f7fffffe          BL       __aeabi_memcpy
0000ae  2600              MOVS     r6,#0                 ;1696
0000b0  2500              MOVS     r5,#0                 ;1697
0000b2  e006              B        |L32.194|
                  |L32.180|
0000b4  f1050080          ADD      r0,r5,#0x80           ;1699
0000b8  5c20              LDRB     r0,[r4,r0]            ;1699
0000ba  4430              ADD      r0,r0,r6              ;1699
0000bc  b2c6              UXTB     r6,r0                 ;1699
0000be  1c68              ADDS     r0,r5,#1              ;1697
0000c0  b2c5              UXTB     r5,r0                 ;1697
                  |L32.194|
0000c2  2d7f              CMP      r5,#0x7f              ;1697
0000c4  dbf6              BLT      |L32.180|
0000c6  4270              RSBS     r0,r6,#0              ;1701
0000c8  f88400ff          STRB     r0,[r4,#0xff]         ;1701
0000cc  bf00              NOP                            ;1702
                  |L32.206|
0000ce  2001              MOVS     r0,#1                 ;1704
0000d0  e7a7              B        |L32.34|
;;;1706   
                          ENDP

0000d2  0000              DCW      0x0000
                  |L32.212|
0000d4  023a8018          DCB      2,":",128,24,"q8-@X,E",0
0000d8  71382d40
0000dc  582c4500
0000e0  20c23100          DCB      " ",194,"1",0
0000e4  00                DCB      0
0000e5  1e00              DCB      30,0
0000e7  00                DCB      0
                  |L32.232|
                          DCD      ||.constdata||+0x128

                          AREA ||i.mapp_EdidLimitTo300M_Block0||, CODE, READONLY, ALIGN=2

                  mapp_EdidLimitTo300M_Block0 PROC
;;;1231   ***************************************************/
;;;1232   bool mapp_EdidLimitTo300M_Block0(u8 *u8pInEdid,
000000  e92d43f0          PUSH     {r4-r9,lr}
;;;1233                                       u8 *u8pOutEdid,
;;;1234                                       u16 u16len,
;;;1235                                       bool bIsLimitTiming)
;;;1236   {
000004  b085              SUB      sp,sp,#0x14
000006  4606              MOV      r6,r0
000008  460c              MOV      r4,r1
00000a  4691              MOV      r9,r2
00000c  461f              MOV      r7,r3
;;;1237       u8 i;
;;;1238       u8 l_u8CheckSum=0;
00000e  f04f0800          MOV      r8,#0
;;;1239       uint8_t const l_u8DefaultEdidTiming[18] = //4k@30, 297M
000012  2214              MOVS     r2,#0x14
000014  a12f              ADR      r1,|L33.212|
000016  4668              MOV      r0,sp
000018  f7fffffe          BL       __aeabi_memcpy4
;;;1240       {
;;;1241           0x04,0x74,0x00,0x30,0xF2,0x70,0x5A,0x80,0xB0,
;;;1242           0x58,0x8A,0x00,0x20,0xC2,0x31,0x00,0x00,0x1E,
;;;1243       };
;;;1244   
;;;1245       if(is_edid_valid(u8pInEdid) == FALSE)
00001c  4630              MOV      r0,r6
00001e  f7fffffe          BL       is_edid_valid
000022  b918              CBNZ     r0,|L33.44|
;;;1246       {
;;;1247           return FALSE;
000024  2000              MOVS     r0,#0
                  |L33.38|
;;;1248       }
;;;1249       memcpy(u8pOutEdid,u8pInEdid,u16len);
;;;1250   
;;;1251       // block 0
;;;1252       #if _CLR_SAMSUN_EDID_SERIAL_NUM
;;;1253       if(u8pOutEdid[0x08]==0x4C&&u8pOutEdid[0x09]==0x2D)  // if ID is SAM, Change the ID serial number 00000000
;;;1254       {
;;;1255           u8pOutEdid[0x0C]=0x00;
;;;1256           u8pOutEdid[0x0D]=0x00;
;;;1257           u8pOutEdid[0x0E]=0x00;
;;;1258           u8pOutEdid[0x0F]=0x00;
;;;1259       }
;;;1260       #endif
;;;1261   
;;;1262       if(bIsLimitTiming)
;;;1263       {
;;;1264           if((((((u8pOutEdid[0x3A]>>4)<<8)|(u8pOutEdid[0x38]))==3840)
;;;1265               ||((((u8pOutEdid[0x3A]>>4)<<8)|(u8pOutEdid[0x38]))==4096))
;;;1266               &&((((u8pOutEdid[0x3D]>>4)<<8)|(u8pOutEdid[0x3B]))==2160))
;;;1267           {
;;;1268               if(((u8pOutEdid[0x37]<<8)|(u8pOutEdid[0x36]))>30000)
;;;1269               {
;;;1270                   for(i=0;i<18;i++)
;;;1271                   {
;;;1272                       u8pOutEdid[0x36+i] = l_u8DefaultEdidTiming[i];
;;;1273                   }
;;;1274               }
;;;1275           }
;;;1276       }
;;;1277       #if _SET_RANGE_LIMITS_BLOCK
;;;1278       for(i=0x49;i<127;i++)
;;;1279       {
;;;1280           if((u8pOutEdid[i]==0x00)&&(u8pOutEdid[i+1]==0x00)&&(u8pOutEdid[i+2]==0x00)&&(u8pOutEdid[i+3]==0xFD))
;;;1281           {
;;;1282               if(u8pOutEdid[i+5]>0x17)
;;;1283               {
;;;1284                   u8pOutEdid[i+5] = 0x17;
;;;1285               }
;;;1286               //if(u8pOutEdid[i+6]>0x55)
;;;1287               //{
;;;1288               //    u8pOutEdid[i+6] = 0x55;
;;;1289               //}
;;;1290               if(u8pOutEdid[i+7]>0x0F)
;;;1291               {
;;;1292                   u8pOutEdid[i+7] = 0x0F;
;;;1293               }
;;;1294               //if(u8pOutEdid[i+8]>0x5C)
;;;1295               //{
;;;1296               //    u8pOutEdid[i+8] = 0x5C;
;;;1297               //}
;;;1298               if(u8pOutEdid[i+9]>0x1E)
;;;1299               {
;;;1300                   u8pOutEdid[i+9] = 0x1E;
;;;1301               }
;;;1302           }
;;;1303       }
;;;1304       #endif
;;;1305   
;;;1306       for(i=0;i<127;i++)
;;;1307       {
;;;1308           l_u8CheckSum += u8pOutEdid[i];
;;;1309       }
;;;1310       u8pOutEdid[0x7F] = 0x100-l_u8CheckSum;
;;;1311   
;;;1312       return TRUE;
;;;1313   }
000026  b005              ADD      sp,sp,#0x14
000028  e8bd83f0          POP      {r4-r9,pc}
                  |L33.44|
00002c  464a              MOV      r2,r9                 ;1249
00002e  4631              MOV      r1,r6                 ;1249
000030  4620              MOV      r0,r4                 ;1249
000032  f7fffffe          BL       __aeabi_memcpy
000036  7a20              LDRB     r0,[r4,#8]            ;1253
000038  284c              CMP      r0,#0x4c              ;1253
00003a  d107              BNE      |L33.76|
00003c  7a60              LDRB     r0,[r4,#9]            ;1253
00003e  282d              CMP      r0,#0x2d              ;1253
000040  d104              BNE      |L33.76|
000042  2000              MOVS     r0,#0                 ;1255
000044  7320              STRB     r0,[r4,#0xc]          ;1255
000046  7360              STRB     r0,[r4,#0xd]          ;1256
000048  73a0              STRB     r0,[r4,#0xe]          ;1257
00004a  73e0              STRB     r0,[r4,#0xf]          ;1258
                  |L33.76|
00004c  b397              CBZ      r7,|L33.180|
00004e  f8940038          LDRB     r0,[r4,#0x38]         ;1264
000052  f894103a          LDRB     r1,[r4,#0x3a]         ;1264
000056  1109              ASRS     r1,r1,#4              ;1264
000058  ea402001          ORR      r0,r0,r1,LSL #8       ;1264
00005c  f5b06f70          CMP      r0,#0xf00             ;1264
000060  d009              BEQ      |L33.118|
000062  f8940038          LDRB     r0,[r4,#0x38]         ;1265
000066  f894103a          LDRB     r1,[r4,#0x3a]         ;1265
00006a  1109              ASRS     r1,r1,#4              ;1265
00006c  ea402001          ORR      r0,r0,r1,LSL #8       ;1265
000070  f5b05f80          CMP      r0,#0x1000            ;1265
000074  d11e              BNE      |L33.180|
                  |L33.118|
000076  f894003b          LDRB     r0,[r4,#0x3b]         ;1266
00007a  f894103d          LDRB     r1,[r4,#0x3d]         ;1266
00007e  1109              ASRS     r1,r1,#4              ;1266
000080  ea402001          ORR      r0,r0,r1,LSL #8       ;1266
000084  f5b06f07          CMP      r0,#0x870             ;1266
000088  d114              BNE      |L33.180|
00008a  f8940036          LDRB     r0,[r4,#0x36]         ;1268
00008e  f8941037          LDRB     r1,[r4,#0x37]         ;1268
000092  ea402001          ORR      r0,r0,r1,LSL #8       ;1268
000096  f2475130          MOV      r1,#0x7530            ;1268
00009a  4288              CMP      r0,r1                 ;1268
00009c  dd0a              BLE      |L33.180|
00009e  2500              MOVS     r5,#0                 ;1270
0000a0  e006              B        |L33.176|
                  |L33.162|
0000a2  f81d1005          LDRB     r1,[sp,r5]            ;1272
0000a6  f1050036          ADD      r0,r5,#0x36           ;1272
0000aa  5421              STRB     r1,[r4,r0]            ;1272
0000ac  1c68              ADDS     r0,r5,#1              ;1270
0000ae  b2c5              UXTB     r5,r0                 ;1270
                  |L33.176|
0000b0  2d12              CMP      r5,#0x12              ;1270
0000b2  dbf6              BLT      |L33.162|
                  |L33.180|
0000b4  2500              MOVS     r5,#0                 ;1306
0000b6  e005              B        |L33.196|
                  |L33.184|
0000b8  5d60              LDRB     r0,[r4,r5]            ;1308
0000ba  4440              ADD      r0,r0,r8              ;1308
0000bc  f00008ff          AND      r8,r0,#0xff           ;1308
0000c0  1c68              ADDS     r0,r5,#1              ;1306
0000c2  b2c5              UXTB     r5,r0                 ;1306
                  |L33.196|
0000c4  2d7f              CMP      r5,#0x7f              ;1306
0000c6  dbf7              BLT      |L33.184|
0000c8  f1c80000          RSB      r0,r8,#0              ;1310
0000cc  f884007f          STRB     r0,[r4,#0x7f]         ;1310
0000d0  2001              MOVS     r0,#1                 ;1312
0000d2  e7a8              B        |L33.38|
;;;1314   
                          ENDP

                  |L33.212|
0000d4  047400            DCB      4,"t",0
0000d7  30f2705a          DCB      "0",242,"pZ",128,176,"X",138,0
0000db  80b0588a
0000df  00      
0000e0  20c23100          DCB      " ",194,"1",0
0000e4  00                DCB      0
0000e5  1e00              DCB      30,0
0000e7  00                DCB      0

                          AREA ||i.mapp_EdidLimitTo300M_Block1||, CODE, READONLY, ALIGN=2

                  mapp_EdidLimitTo300M_Block1 PROC
;;;1324   ***************************************************/
;;;1325   bool mapp_EdidLimitTo300M_Block1(u8 *u8pInEdid,
000000  e92d4fff          PUSH     {r0-r11,lr}
;;;1326                                       u8 *u8pOutEdid,
;;;1327                                       u16 u16len,
;;;1328                                       bool bRemoveVDB6G,
;;;1329                                       bool bEnInterlace,
;;;1330                                       bool bOnlyPcm20,
;;;1331                                       bool bRemove420)
;;;1332   {
000004  b08b              SUB      sp,sp,#0x2c
000006  4681              MOV      r9,r0
000008  460e              MOV      r6,r1
00000a  469a              MOV      r10,r3
00000c  f8ddb060          LDR      r11,[sp,#0x60]
;;;1333       u8 i;
;;;1334       u8 l_u8CheckSum=0;
000010  2000              MOVS     r0,#0
000012  900a              STR      r0,[sp,#0x28]
;;;1335       memcpy(u8pOutEdid,u8pInEdid,u16len);
000014  4649              MOV      r1,r9
000016  4630              MOV      r0,r6
000018  9a0d              LDR      r2,[sp,#0x34]
00001a  f7fffffe          BL       __aeabi_memcpy
;;;1336   
;;;1337       // block 1
;;;1338       {
;;;1339           if((u8pOutEdid[0] == 0x02) && (u8pOutEdid[1] == 0x03))
00001e  7830              LDRB     r0,[r6,#0]
000020  2802              CMP      r0,#2
                  |L34.34|
000022  d173              BNE      |L34.268|
000024  7870              LDRB     r0,[r6,#1]
000026  2803              CMP      r0,#3
000028  d1fb              BNE      |L34.34|
;;;1340           {
;;;1341               u8 l_u8DataBlockLen = u8pOutEdid[2];
00002a  78b0              LDRB     r0,[r6,#2]
00002c  9009              STR      r0,[sp,#0x24]
;;;1342               u8 j=0;
00002e  2500              MOVS     r5,#0
;;;1343               u8 l_u8Offect = 0;
000030  2700              MOVS     r7,#0
;;;1344               #if _CLR_VIDEO_DATA_BLOCK_6G
;;;1345               u8 l_pu8Vdb[31]={0};
000032  2120              MOVS     r1,#0x20
000034  a801              ADD      r0,sp,#4
000036  f7fffffe          BL       __aeabi_memclr4
;;;1346               u8 l_u8VdbId = 0;
00003a  46a8              MOV      r8,r5
;;;1347               #endif
;;;1348   
;;;1349               for(i=4;i<l_u8DataBlockLen;i++)
00003c  2404              MOVS     r4,#4
00003e  e156              B        |L34.750|
                  |L34.64|
;;;1350               {
;;;1351                   l_u8Offect = u8pOutEdid[0+i]&0x1F;
000040  5d30              LDRB     r0,[r6,r4]
000042  f000071f          AND      r7,r0,#0x1f
;;;1352   
;;;1353                   #if _CLR_VIDEO_DATA_BLOCK_6G
;;;1354                   if(((u8pOutEdid[0+i]&0xE0)==0x40)&&(bRemoveVDB6G == TRUE)) // video data block
000046  5d30              LDRB     r0,[r6,r4]
000048  f00000e0          AND      r0,r0,#0xe0
00004c  2840              CMP      r0,#0x40
00004e  d172              BNE      |L34.310|
000050  f1ba0f01          CMP      r10,#1
000054  d17e              BNE      |L34.340|
;;;1355                   {
;;;1356                       for(j=0;j<l_u8Offect;j++)
000056  2500              MOVS     r5,#0
000058  e04f              B        |L34.250|
                  |L34.90|
;;;1357                       {
;;;1358                           if(bEnInterlace&&((((u8pOutEdid[0+i+1+j]&0x7F)>=96)&&((u8pOutEdid[0+i+1+j]&0x7F)<=97))
00005a  f1bb0f00          CMP      r11,#0
00005e  d023              BEQ      |L34.168|
000060  1c60              ADDS     r0,r4,#1
000062  4428              ADD      r0,r0,r5
000064  5c30              LDRB     r0,[r6,r0]
000066  f000007f          AND      r0,r0,#0x7f
00006a  2860              CMP      r0,#0x60
00006c  db06              BLT      |L34.124|
00006e  1c60              ADDS     r0,r4,#1
000070  4428              ADD      r0,r0,r5
000072  5c30              LDRB     r0,[r6,r0]
000074  f000007f          AND      r0,r0,#0x7f
000078  2861              CMP      r0,#0x61
00007a  dd14              BLE      |L34.166|
                  |L34.124|
;;;1359                               ||(((u8pOutEdid[0+i+1+j]&0x7F)>=101)&&((u8pOutEdid[0+i+1+j]&0x7F)<=102))
00007c  1c60              ADDS     r0,r4,#1
00007e  4428              ADD      r0,r0,r5
000080  5c30              LDRB     r0,[r6,r0]
000082  f000007f          AND      r0,r0,#0x7f
000086  2865              CMP      r0,#0x65
000088  db06              BLT      |L34.152|
00008a  1c60              ADDS     r0,r4,#1
00008c  4428              ADD      r0,r0,r5
00008e  5c30              LDRB     r0,[r6,r0]
000090  f000007f          AND      r0,r0,#0x7f
000094  2866              CMP      r0,#0x66
000096  dd06              BLE      |L34.166|
                  |L34.152|
;;;1360                               ||((u8pOutEdid[0+i+1+j]&0x7F)>=106)))
000098  1c60              ADDS     r0,r4,#1
00009a  4428              ADD      r0,r0,r5
00009c  5c30              LDRB     r0,[r6,r0]
00009e  f000007f          AND      r0,r0,#0x7f
0000a2  286a              CMP      r0,#0x6a
0000a4  db00              BLT      |L34.168|
                  |L34.166|
;;;1361                               continue;
0000a6  e026              B        |L34.246|
                  |L34.168|
;;;1362   
;;;1363                           if((bEnInterlace==FALSE)&&(((u8pOutEdid[0+i+1+j]>=96)&&(u8pOutEdid[0+i+1+j]<=97))
0000a8  f1bb0f00          CMP      r11,#0
0000ac  d119              BNE      |L34.226|
0000ae  1c60              ADDS     r0,r4,#1
0000b0  4428              ADD      r0,r0,r5
0000b2  5c30              LDRB     r0,[r6,r0]
0000b4  2860              CMP      r0,#0x60
0000b6  db04              BLT      |L34.194|
0000b8  1c60              ADDS     r0,r4,#1
0000ba  4428              ADD      r0,r0,r5
0000bc  5c30              LDRB     r0,[r6,r0]
0000be  2861              CMP      r0,#0x61
0000c0  dd0e              BLE      |L34.224|
                  |L34.194|
;;;1364                               ||((u8pOutEdid[0+i+1+j]>=101)&&(u8pOutEdid[0+i+1+j]<=102))
0000c2  1c60              ADDS     r0,r4,#1
0000c4  4428              ADD      r0,r0,r5
0000c6  5c30              LDRB     r0,[r6,r0]
0000c8  2865              CMP      r0,#0x65
0000ca  db04              BLT      |L34.214|
0000cc  1c60              ADDS     r0,r4,#1
0000ce  4428              ADD      r0,r0,r5
0000d0  5c30              LDRB     r0,[r6,r0]
0000d2  2866              CMP      r0,#0x66
0000d4  dd04              BLE      |L34.224|
                  |L34.214|
;;;1365                               ||(u8pOutEdid[0+i+1+j]>=106)))  //  Delete timing up to 4K60
0000d6  1c60              ADDS     r0,r4,#1
0000d8  4428              ADD      r0,r0,r5
0000da  5c30              LDRB     r0,[r6,r0]
0000dc  286a              CMP      r0,#0x6a
0000de  db00              BLT      |L34.226|
                  |L34.224|
;;;1366                           {
;;;1367                               continue;
0000e0  e009              B        |L34.246|
                  |L34.226|
;;;1368                           }
;;;1369                           else
;;;1370                           {
;;;1371                               l_pu8Vdb[l_u8VdbId++] = u8pOutEdid[0+i+1+j];
0000e2  1c60              ADDS     r0,r4,#1
0000e4  4428              ADD      r0,r0,r5
0000e6  5c32              LDRB     r2,[r6,r0]
0000e8  4640              MOV      r0,r8
0000ea  1c41              ADDS     r1,r0,#1
0000ec  f00108ff          AND      r8,r1,#0xff
0000f0  a901              ADD      r1,sp,#4
0000f2  540a              STRB     r2,[r1,r0]
0000f4  bf00              NOP                            ;1361
                  |L34.246|
0000f6  1c68              ADDS     r0,r5,#1              ;1356
0000f8  b2c5              UXTB     r5,r0                 ;1356
                  |L34.250|
0000fa  42bd              CMP      r5,r7                 ;1356
0000fc  dbad              BLT      |L34.90|
;;;1372                           }
;;;1373                       }
;;;1374                       if(l_u8VdbId != l_u8Offect)
0000fe  45b8              CMP      r8,r7
000100  d024              BEQ      |L34.332|
;;;1375                       {
;;;1376                           u8pOutEdid[0+i] = (0x40|l_u8VdbId);
000102  f0480040          ORR      r0,r8,#0x40
000106  5530              STRB     r0,[r6,r4]
;;;1377                           for(j=0;j<l_u8VdbId;j++)
000108  2500              MOVS     r5,#0
00010a  e007              B        |L34.284|
                  |L34.268|
00010c  e0f4              B        |L34.760|
                  |L34.270|
;;;1378                           {
;;;1379                               u8pOutEdid[0+i+1+j] = l_pu8Vdb[j];
00010e  a801              ADD      r0,sp,#4
000110  5d41              LDRB     r1,[r0,r5]
000112  1c60              ADDS     r0,r4,#1
000114  4428              ADD      r0,r0,r5
000116  5431              STRB     r1,[r6,r0]
000118  1c68              ADDS     r0,r5,#1              ;1377
00011a  b2c5              UXTB     r5,r0                 ;1377
                  |L34.284|
00011c  4545              CMP      r5,r8                 ;1377
00011e  dbf6              BLT      |L34.270|
;;;1380                           }
;;;1381                           u8pOutEdid[2] = u8pOutEdid[2] - (l_u8Offect-l_u8VdbId);
000120  78b0              LDRB     r0,[r6,#2]
000122  eba70108          SUB      r1,r7,r8
000126  1a40              SUBS     r0,r0,r1
000128  70b0              STRB     r0,[r6,#2]
;;;1382                           l_u8DataBlockLen = u8pOutEdid[2];
00012a  78b0              LDRB     r0,[r6,#2]
00012c  9009              STR      r0,[sp,#0x24]
;;;1383                           for(j=(i+1+l_u8Offect);j<127;j++)
00012e  1c60              ADDS     r0,r4,#1
000130  4438              ADD      r0,r0,r7
000132  b2c5              UXTB     r5,r0
000134  e008              B        |L34.328|
                  |L34.310|
000136  e00d              B        |L34.340|
                  |L34.312|
;;;1384                           {
;;;1385                               u8pOutEdid[0+j-(l_u8Offect-l_u8VdbId)] = u8pInEdid[0+j];
000138  f8190005          LDRB     r0,[r9,r5]
00013c  eba70108          SUB      r1,r7,r8
000140  1a69              SUBS     r1,r5,r1
000142  5470              STRB     r0,[r6,r1]
000144  1c68              ADDS     r0,r5,#1              ;1383
000146  b2c5              UXTB     r5,r0                 ;1383
                  |L34.328|
000148  2d7f              CMP      r5,#0x7f              ;1383
00014a  dbf5              BLT      |L34.312|
                  |L34.332|
;;;1386                           }
;;;1387                       }
;;;1388                       i += l_u8VdbId;
00014c  eb040008          ADD      r0,r4,r8
000150  b2c4              UXTB     r4,r0
000152  e0ca              B        |L34.746|
                  |L34.340|
;;;1389                   }
;;;1390                   else
;;;1391                   #endif
;;;1392                   #if _SET_AUDIO_DATA_BLOCK_LIMIT_PCM20
;;;1393                   if(((u8pOutEdid[0+i]&0xE0)==0x20)&&(bOnlyPcm20 == TRUE)) // video data block
000154  5d30              LDRB     r0,[r6,r4]
000156  f00000e0          AND      r0,r0,#0xe0
00015a  2820              CMP      r0,#0x20
00015c  d136              BNE      |L34.460|
00015e  9819              LDR      r0,[sp,#0x64]
000160  2801              CMP      r0,#1
000162  d133              BNE      |L34.460|
;;;1394                   {
;;;1395                       u8 l_u8PCMData[] = {0x09,0x04,0x07};
000164  a06f              ADR      r0,|L34.804|
000166  6800              LDR      r0,[r0,#0]
000168  9000              STR      r0,[sp,#0]
;;;1396                       u8pOutEdid[0+i] = ((u8pOutEdid[0+i]&0xE0)|0x03);
00016a  5d30              LDRB     r0,[r6,r4]
00016c  f00000e0          AND      r0,r0,#0xe0
000170  1cc0              ADDS     r0,r0,#3
000172  5530              STRB     r0,[r6,r4]
;;;1397                       for(j=1;j<4;j++)
000174  2501              MOVS     r5,#1
000176  e006              B        |L34.390|
                  |L34.376|
;;;1398                       {
;;;1399                           u8pOutEdid[0+i+j] = l_u8PCMData[j-1];
000178  1e68              SUBS     r0,r5,#1
00017a  f81d0000          LDRB     r0,[sp,r0]
00017e  1961              ADDS     r1,r4,r5
000180  5470              STRB     r0,[r6,r1]
000182  1c68              ADDS     r0,r5,#1              ;1397
000184  b2c5              UXTB     r5,r0                 ;1397
                  |L34.390|
000186  2d04              CMP      r5,#4                 ;1397
000188  dbf6              BLT      |L34.376|
;;;1400                       }
;;;1401                       for(j=i;j<127;j++)
00018a  4625              MOV      r5,r4
00018c  e012              B        |L34.436|
                  |L34.398|
;;;1402                       {
;;;1403                           if((0+j+4)>127)
00018e  1d28              ADDS     r0,r5,#4
000190  287f              CMP      r0,#0x7f
000192  dd00              BLE      |L34.406|
;;;1404                           {
;;;1405                               break;
000194  e010              B        |L34.440|
                  |L34.406|
;;;1406                           }
;;;1407                           if((0+j+l_u8Offect+1)<127)
000196  19e8              ADDS     r0,r5,r7
000198  1c40              ADDS     r0,r0,#1
00019a  287f              CMP      r0,#0x7f
00019c  da05              BGE      |L34.426|
;;;1408                           {
;;;1409                               u8pOutEdid[0+j+4] = u8pOutEdid[0+j+l_u8Offect+1];
00019e  19e8              ADDS     r0,r5,r7
0001a0  1c40              ADDS     r0,r0,#1
0001a2  5c31              LDRB     r1,[r6,r0]
0001a4  1d28              ADDS     r0,r5,#4
0001a6  5431              STRB     r1,[r6,r0]
0001a8  e002              B        |L34.432|
                  |L34.426|
;;;1410                           }
;;;1411                           else
;;;1412                           {
;;;1413                               u8pOutEdid[0+j+4] = 0;
0001aa  2100              MOVS     r1,#0
0001ac  1d28              ADDS     r0,r5,#4
0001ae  5431              STRB     r1,[r6,r0]
                  |L34.432|
0001b0  1c68              ADDS     r0,r5,#1              ;1401
0001b2  b2c5              UXTB     r5,r0                 ;1401
                  |L34.436|
0001b4  2d7f              CMP      r5,#0x7f              ;1401
0001b6  dbea              BLT      |L34.398|
                  |L34.440|
0001b8  bf00              NOP                            ;1405
;;;1414                           }
;;;1415                       }
;;;1416                       u8pOutEdid[2] = u8pOutEdid[2] - (l_u8Offect-3);
0001ba  78b1              LDRB     r1,[r6,#2]
0001bc  1ef8              SUBS     r0,r7,#3
0001be  1a08              SUBS     r0,r1,r0
0001c0  70b0              STRB     r0,[r6,#2]
;;;1417                       l_u8DataBlockLen = u8pOutEdid[2];
0001c2  78b0              LDRB     r0,[r6,#2]
0001c4  9009              STR      r0,[sp,#0x24]
;;;1418                       i += 3;
0001c6  1ce0              ADDS     r0,r4,#3
0001c8  b2c4              UXTB     r4,r0
;;;1419                   }
0001ca  e08e              B        |L34.746|
                  |L34.460|
;;;1420                   else
;;;1421                   #endif
;;;1422                   #if _CLR_VSDB_HDMI_FORUM_BLOCK
;;;1423                   if((u8pOutEdid[0+i]&0xE0)==0x60)    // vsdb
0001cc  5d30              LDRB     r0,[r6,r4]
0001ce  f00000e0          AND      r0,r0,#0xe0
0001d2  2860              CMP      r0,#0x60
0001d4  d13d              BNE      |L34.594|
;;;1424                   {
;;;1425                       if((u8pOutEdid[0+i+1] == 0xD8)&&(u8pOutEdid[0+i+2] == 0x5D)&&(u8pOutEdid[0+i+3] == 0xC4))      //HDMI FORUM
0001d6  1c60              ADDS     r0,r4,#1
0001d8  5c30              LDRB     r0,[r6,r0]
0001da  28d8              CMP      r0,#0xd8
0001dc  d121              BNE      |L34.546|
0001de  1ca0              ADDS     r0,r4,#2
0001e0  5c30              LDRB     r0,[r6,r0]
0001e2  285d              CMP      r0,#0x5d
0001e4  d11d              BNE      |L34.546|
0001e6  1ce0              ADDS     r0,r4,#3
0001e8  5c30              LDRB     r0,[r6,r0]
0001ea  28c4              CMP      r0,#0xc4
0001ec  d119              BNE      |L34.546|
;;;1426                       {
;;;1427                           for(j=i;j<127;j++)  // Delete hdmi forum block
0001ee  4625              MOV      r5,r4
0001f0  e00c              B        |L34.524|
                  |L34.498|
;;;1428                           {
;;;1429                               if((0+j+l_u8Offect+1)<127)
0001f2  19e8              ADDS     r0,r5,r7
0001f4  1c40              ADDS     r0,r0,#1
0001f6  287f              CMP      r0,#0x7f
0001f8  da04              BGE      |L34.516|
;;;1430                               {
;;;1431                                   u8pOutEdid[0+j] = u8pOutEdid[0+j+l_u8Offect+1];
0001fa  19e8              ADDS     r0,r5,r7
0001fc  1c40              ADDS     r0,r0,#1
0001fe  5c30              LDRB     r0,[r6,r0]
000200  5570              STRB     r0,[r6,r5]
000202  e001              B        |L34.520|
                  |L34.516|
;;;1432                               }
;;;1433                               else
;;;1434                               {
;;;1435                                   u8pOutEdid[0+j] = 0;
000204  2000              MOVS     r0,#0
000206  5570              STRB     r0,[r6,r5]
                  |L34.520|
000208  1c68              ADDS     r0,r5,#1              ;1427
00020a  b2c5              UXTB     r5,r0                 ;1427
                  |L34.524|
00020c  2d7f              CMP      r5,#0x7f              ;1427
00020e  dbf0              BLT      |L34.498|
;;;1436                               }
;;;1437                           }
;;;1438                           u8pOutEdid[2] = u8pOutEdid[2] - (l_u8Offect)-1;
000210  78b0              LDRB     r0,[r6,#2]
000212  1bc0              SUBS     r0,r0,r7
000214  1e40              SUBS     r0,r0,#1
000216  70b0              STRB     r0,[r6,#2]
;;;1439                           l_u8DataBlockLen = u8pOutEdid[2];
000218  78b0              LDRB     r0,[r6,#2]
00021a  9009              STR      r0,[sp,#0x24]
;;;1440                           i -= 1; // return to previous index
00021c  1e60              SUBS     r0,r4,#1
00021e  b2c4              UXTB     r4,r0
000220  e063              B        |L34.746|
                  |L34.546|
;;;1441                       }
;;;1442                       else if((u8pOutEdid[0+i+1] == 0x03)&&(u8pOutEdid[0+i+2] == 0x0C)&&(u8pOutEdid[0+i+3] == 0x00))
000222  1c60              ADDS     r0,r4,#1
000224  5c30              LDRB     r0,[r6,r0]
000226  2803              CMP      r0,#3
000228  d110              BNE      |L34.588|
00022a  1ca0              ADDS     r0,r4,#2
00022c  5c30              LDRB     r0,[r6,r0]
00022e  280c              CMP      r0,#0xc
000230  d10c              BNE      |L34.588|
000232  1ce0              ADDS     r0,r4,#3
000234  5c30              LDRB     r0,[r6,r0]
000236  b948              CBNZ     r0,|L34.588|
;;;1443                       {
;;;1444                           if((u8pOutEdid[0+i+7] > 0x3C)) // max Clock > 300 0x3C*5 = 300
000238  1de0              ADDS     r0,r4,#7
00023a  5c30              LDRB     r0,[r6,r0]
00023c  283c              CMP      r0,#0x3c
00023e  dd02              BLE      |L34.582|
;;;1445                           {
;;;1446                               u8pOutEdid[0+i+7] = 0x3C;
000240  213c              MOVS     r1,#0x3c
000242  1de0              ADDS     r0,r4,#7
000244  5431              STRB     r1,[r6,r0]
                  |L34.582|
;;;1447                           }
;;;1448                           i += l_u8Offect;
000246  19e0              ADDS     r0,r4,r7
000248  b2c4              UXTB     r4,r0
00024a  e04e              B        |L34.746|
                  |L34.588|
;;;1449                       }
;;;1450                       else
;;;1451                           i += l_u8Offect;
00024c  19e0              ADDS     r0,r4,r7
00024e  b2c4              UXTB     r4,r0
000250  e04b              B        |L34.746|
                  |L34.594|
;;;1452                   }
;;;1453                   else
;;;1454                   #endif
;;;1455                   if((u8pOutEdid[0+i]&0xE0)==0xE0)    // CTA Data
000252  5d30              LDRB     r0,[r6,r4]
000254  f00000e0          AND      r0,r0,#0xe0
000258  28e0              CMP      r0,#0xe0
00025a  d144              BNE      |L34.742|
;;;1456                   {
;;;1457                       #if _CLR_YCBCR420_EDID_BLOCK
;;;1458                       if((u8pOutEdid[0+i+1]==0x0F)&&(bRemove420==TRUE))      // YCbCr 420 capability map
00025c  1c60              ADDS     r0,r4,#1
00025e  5c30              LDRB     r0,[r6,r0]
000260  280f              CMP      r0,#0xf
000262  d11c              BNE      |L34.670|
000264  981a              LDR      r0,[sp,#0x68]
000266  2801              CMP      r0,#1
000268  d119              BNE      |L34.670|
;;;1459                       {
;;;1460                           for(j=i;j<127;j++)  // Delete YCbCr 420 capability map block
00026a  4625              MOV      r5,r4
00026c  e00c              B        |L34.648|
                  |L34.622|
;;;1461                           {
;;;1462                               if((0+j+l_u8Offect+1)<127)
00026e  19e8              ADDS     r0,r5,r7
000270  1c40              ADDS     r0,r0,#1
000272  287f              CMP      r0,#0x7f
000274  da04              BGE      |L34.640|
;;;1463                               {
;;;1464                                   u8pOutEdid[0+j] = u8pOutEdid[0+j+l_u8Offect+1];
000276  19e8              ADDS     r0,r5,r7
000278  1c40              ADDS     r0,r0,#1
00027a  5c30              LDRB     r0,[r6,r0]
00027c  5570              STRB     r0,[r6,r5]
00027e  e001              B        |L34.644|
                  |L34.640|
;;;1465                               }
;;;1466                               else
;;;1467                               {
;;;1468                                   u8pOutEdid[0+j] = 0;
000280  2000              MOVS     r0,#0
000282  5570              STRB     r0,[r6,r5]
                  |L34.644|
000284  1c68              ADDS     r0,r5,#1              ;1460
000286  b2c5              UXTB     r5,r0                 ;1460
                  |L34.648|
000288  2d7f              CMP      r5,#0x7f              ;1460
00028a  dbf0              BLT      |L34.622|
;;;1469                               }
;;;1470                           }
;;;1471                           u8pOutEdid[2] = u8pOutEdid[2] - (l_u8Offect)-1;
00028c  78b0              LDRB     r0,[r6,#2]
00028e  1bc0              SUBS     r0,r0,r7
000290  1e40              SUBS     r0,r0,#1
000292  70b0              STRB     r0,[r6,#2]
;;;1472                           l_u8DataBlockLen = u8pOutEdid[2];
000294  78b0              LDRB     r0,[r6,#2]
000296  9009              STR      r0,[sp,#0x24]
;;;1473                           i -= 1;
000298  1e60              SUBS     r0,r4,#1
00029a  b2c4              UXTB     r4,r0
00029c  e025              B        |L34.746|
                  |L34.670|
;;;1474                       }
;;;1475                       else if((u8pOutEdid[0+i+1]==0x0E)&&(bRemove420==TRUE))     // YCbCr 420 Video data
00029e  1c60              ADDS     r0,r4,#1
0002a0  5c30              LDRB     r0,[r6,r0]
0002a2  280e              CMP      r0,#0xe
0002a4  d11c              BNE      |L34.736|
0002a6  981a              LDR      r0,[sp,#0x68]
0002a8  2801              CMP      r0,#1
0002aa  d119              BNE      |L34.736|
;;;1476                       {
;;;1477                           for(j=i;j<127;j++)  // Delete YCbCr 420 Video data block
0002ac  4625              MOV      r5,r4
0002ae  e00c              B        |L34.714|
                  |L34.688|
;;;1478                           {
;;;1479                               if((0+j+l_u8Offect+1)<127)
0002b0  19e8              ADDS     r0,r5,r7
0002b2  1c40              ADDS     r0,r0,#1
0002b4  287f              CMP      r0,#0x7f
0002b6  da04              BGE      |L34.706|
;;;1480                               {
;;;1481                                   u8pOutEdid[0+j] = u8pOutEdid[0+j+l_u8Offect+1];
0002b8  19e8              ADDS     r0,r5,r7
0002ba  1c40              ADDS     r0,r0,#1
0002bc  5c30              LDRB     r0,[r6,r0]
0002be  5570              STRB     r0,[r6,r5]
0002c0  e001              B        |L34.710|
                  |L34.706|
;;;1482                               }
;;;1483                               else
;;;1484                               {
;;;1485                                   u8pOutEdid[0+j] = 0;
0002c2  2000              MOVS     r0,#0
0002c4  5570              STRB     r0,[r6,r5]
                  |L34.710|
0002c6  1c68              ADDS     r0,r5,#1              ;1477
0002c8  b2c5              UXTB     r5,r0                 ;1477
                  |L34.714|
0002ca  2d7f              CMP      r5,#0x7f              ;1477
0002cc  dbf0              BLT      |L34.688|
;;;1486                               }
;;;1487                           }
;;;1488                           u8pOutEdid[2] = u8pOutEdid[2] - (l_u8Offect)-1;
0002ce  78b0              LDRB     r0,[r6,#2]
0002d0  1bc0              SUBS     r0,r0,r7
0002d2  1e40              SUBS     r0,r0,#1
0002d4  70b0              STRB     r0,[r6,#2]
;;;1489                           l_u8DataBlockLen = u8pOutEdid[2];
0002d6  78b0              LDRB     r0,[r6,#2]
0002d8  9009              STR      r0,[sp,#0x24]
;;;1490                           i -= 1;
0002da  1e60              SUBS     r0,r4,#1
0002dc  b2c4              UXTB     r4,r0
0002de  e004              B        |L34.746|
                  |L34.736|
;;;1491                       }
;;;1492                       else
;;;1493                       #endif
;;;1494                       #if _CLR_HDR_BLOCK
;;;1495                       if(u8pOutEdid[0+i+1]==0x06)     // HDR Static Metadata
;;;1496                       {
;;;1497                           for(j=i;j<127;j++)  // Delete HDR Static Metadata
;;;1498                           {
;;;1499                               if((0x0+j+l_u8Offect+1)<255)
;;;1500                               {
;;;1501                                   u8pOutEdid[0x0+j] = u8pOutEdid[0x0+j+l_u8Offect+1];
;;;1502                               }
;;;1503                               else
;;;1504                               {
;;;1505                                   u8pOutEdid[0x0+j] = 0;
;;;1506                               }
;;;1507                           }
;;;1508                           u8pOutEdid[0x2] = u8pOutEdid[0x2] - (l_u8Offect)-1;
;;;1509                           l_u8DataBlockLen = u8pOutEdid[0x2];
;;;1510                           i -= 1;
;;;1511                       }
;;;1512                       else
;;;1513                       #endif //add by wf8421
;;;1514                       #if _SET_DOLBY_VISION_LIMIT_4K30
;;;1515                       if(u8pOutEdid[0+i+1]==0x01)  // dolby vision
;;;1516                       {
;;;1517                           // IEEE = 0x00D046
;;;1518                           if((u8pOutEdid[0+i+2] == 0x46)&&(u8pOutEdid[0+i+3] == 0xD0)&&(u8pOutEdid[0+i+4] == 0x00))
;;;1519                           {
;;;1520                               if(l_u8Offect>6)
;;;1521                               {
;;;1522                                   if(((u8pOutEdid[0+i+5]&BIT6)==0)&&(u8pOutEdid[0+i+5]&BIT1))
;;;1523                                   {
;;;1524                                       u8pOutEdid[0+i+5] = u8pOutEdid[0+i+5]&(~BIT1);    // Remove support 2160p 60Hz
;;;1525                                   }
;;;1526                                   else
;;;1527                                       i += l_u8Offect;
;;;1528                               }
;;;1529                               else
;;;1530                                   i += l_u8Offect;
;;;1531                           }
;;;1532                           else
;;;1533                               i += l_u8Offect;
;;;1534                       }
;;;1535                       else
;;;1536                       #endif
;;;1537                       #if _CLR_DOLBY_VISION_BLOCK
;;;1538                       if(u8pOutEdid[0+i+1]==0x01)  // dolby vision
;;;1539                       {
;;;1540                           if((u8pOutEdid[0+i+2] == 0x46)&&(u8pOutEdid[0+i+3] == 0xD0)&&(u8pOutEdid[0+i+4] == 0x00))
;;;1541                           {
;;;1542                               for(j=i;j<127;j++)  // Delete dolby vision block
;;;1543                               {
;;;1544                                   if((0+j+l_u8Offect+1)<127)
;;;1545                                   {
;;;1546                                       u8pOutEdid[0+j] = u8pOutEdid[0+j+l_u8Offect+1];
;;;1547                                   }
;;;1548                                   else
;;;1549                                   {
;;;1550                                       u8pOutEdid[0+j] = 0;
;;;1551                                   }
;;;1552                               }
;;;1553                               u8pOutEdid[2] = u8pOutEdid[2] - (l_u8Offect)-1;
;;;1554                               l_u8DataBlockLen = u8pOutEdid[2];
;;;1555                               i -= 1;
;;;1556                           }
;;;1557                           else
;;;1558                               i += l_u8Offect;
;;;1559                       }
;;;1560                       else
;;;1561                       #endif
;;;1562                       {
;;;1563                           i += l_u8Offect;
0002e0  19e0              ADDS     r0,r4,r7
0002e2  b2c4              UXTB     r4,r0
0002e4  e001              B        |L34.746|
                  |L34.742|
;;;1564                       }
;;;1565                   }
;;;1566                   else
;;;1567                   {
;;;1568                       i += l_u8Offect;
0002e6  19e0              ADDS     r0,r4,r7
0002e8  b2c4              UXTB     r4,r0
                  |L34.746|
0002ea  1c60              ADDS     r0,r4,#1              ;1349
0002ec  b2c4              UXTB     r4,r0                 ;1349
                  |L34.750|
0002ee  9809              LDR      r0,[sp,#0x24]         ;1349
0002f0  4284              CMP      r4,r0                 ;1349
0002f2  f6ffaea5          BLT      |L34.64|
;;;1569                   }
;;;1570               }
;;;1571           }
0002f6  bf00              NOP      
                  |L34.760|
;;;1572           l_u8CheckSum = 0;
0002f8  2000              MOVS     r0,#0
0002fa  900a              STR      r0,[sp,#0x28]
;;;1573           for(i=0;i<127;i++)
0002fc  2400              MOVS     r4,#0
0002fe  e006              B        |L34.782|
                  |L34.768|
;;;1574           {
;;;1575               l_u8CheckSum += u8pOutEdid[i+0];
000300  5d31              LDRB     r1,[r6,r4]
000302  980a              LDR      r0,[sp,#0x28]
000304  4408              ADD      r0,r0,r1
000306  b2c0              UXTB     r0,r0
000308  900a              STR      r0,[sp,#0x28]
00030a  1c60              ADDS     r0,r4,#1              ;1573
00030c  b2c4              UXTB     r4,r0                 ;1573
                  |L34.782|
00030e  2c7f              CMP      r4,#0x7f              ;1573
000310  dbf6              BLT      |L34.768|
;;;1576           }
;;;1577           u8pOutEdid[0x7F+0] = 0x100-l_u8CheckSum;
000312  980a              LDR      r0,[sp,#0x28]
000314  4240              RSBS     r0,r0,#0
000316  f886007f          STRB     r0,[r6,#0x7f]
;;;1578       }
;;;1579   
;;;1580       return TRUE;
00031a  2001              MOVS     r0,#1
;;;1581   }
00031c  b00f              ADD      sp,sp,#0x3c
00031e  e8bd8ff0          POP      {r4-r11,pc}
;;;1582   
                          ENDP

000322  0000              DCW      0x0000
                  |L34.804|
000324  09040700          DCB      "\t",4,"\a",0

                          AREA ||i.mapp_EdidLimitTo4K30||, CODE, READONLY, ALIGN=2

                  mapp_EdidLimitTo4K30 PROC
;;;884    ***************************************************/
;;;885    bool mapp_EdidLimitTo4K30(u8 *u8pInEdid,
000000  e92d4fff          PUSH     {r0-r11,lr}
;;;886                                        u8 *u8pOutEdid,
;;;887                                        u16 u16len,
;;;888                                        bool bEnInterlace,
;;;889                                        bool bOnlyPcm20)
;;;890    {
000004  b08f              SUB      sp,sp,#0x3c
000006  4682              MOV      r10,r0
000008  460c              MOV      r4,r1
00000a  469b              MOV      r11,r3
;;;891        u8 i;
;;;892        u8 l_u8CheckSum=0;
00000c  f04f0900          MOV      r9,#0
;;;893        uint8_t const l_u8DefaultEdidTiming[18] = //4k@30, 297M
000010  2214              MOVS     r2,#0x14
000012  a1fa              ADR      r1,|L35.1020|
000014  a80a              ADD      r0,sp,#0x28
000016  f7fffffe          BL       __aeabi_memcpy4
;;;894        {
;;;895            0x04,0x74,0x00,0x30,0xF2,0x70,0x5A,0x80,0xB0,
;;;896            0x58,0x8A,0x00,0x20,0xC2,0x31,0x00,0x00,0x1E,
;;;897        };
;;;898    
;;;899        if(is_edid_valid(u8pInEdid) == FALSE)
00001a  4650              MOV      r0,r10
00001c  f7fffffe          BL       is_edid_valid
000020  b918              CBNZ     r0,|L35.42|
;;;900        {
;;;901            return FALSE;
000022  2000              MOVS     r0,#0
                  |L35.36|
;;;902        }
;;;903        memcpy(u8pOutEdid,u8pInEdid,u16len);
;;;904    
;;;905        // block 0
;;;906        #if _CLR_SAMSUN_EDID_SERIAL_NUM
;;;907        if(u8pOutEdid[0x08]==0x4C&&u8pOutEdid[0x09]==0x2D)  // if ID is SAM, Change the ID serial number 00000000
;;;908        {
;;;909            u8pOutEdid[0x0C]=0x00;
;;;910            u8pOutEdid[0x0D]=0x00;
;;;911            u8pOutEdid[0x0E]=0x00;
;;;912            u8pOutEdid[0x0F]=0x00;
;;;913        }
;;;914        #endif
;;;915    
;;;916        if((((((u8pOutEdid[0x3A]>>4)<<8)|(u8pOutEdid[0x38]))==3840)
;;;917            ||((((u8pOutEdid[0x3A]>>4)<<8)|(u8pOutEdid[0x38]))==4096))
;;;918            &&((((u8pOutEdid[0x3D]>>4)<<8)|(u8pOutEdid[0x3B]))==2160))
;;;919        {
;;;920            if(((u8pOutEdid[0x37]<<8)|(u8pOutEdid[0x36]))>30000)
;;;921            {
;;;922                for(i=0;i<18;i++)
;;;923                {
;;;924                    u8pOutEdid[0x36+i] = l_u8DefaultEdidTiming[i];
;;;925                }
;;;926            }
;;;927        }
;;;928    
;;;929        #if 0
;;;930        for(i=0x49;i<127;i++)
;;;931        {
;;;932            if((u8pOutEdid[i]==0x00)&&(u8pOutEdid[i+1]==0x00)&&(u8pOutEdid[i+2]==0x00)&&(u8pOutEdid[i+3]==0xFD))
;;;933            {
;;;934                if(u8pOutEdid[i+9]>0x1E)
;;;935                {
;;;936                    u8pOutEdid[i+9] = 0x1E;
;;;937                }
;;;938            }
;;;939        }
;;;940        #endif
;;;941    
;;;942    #if _SET_RANGE_LIMITS_BLOCK
;;;943        for(i=0x49;i<127;i++)
;;;944        {
;;;945            if((u8pOutEdid[i]==0x00)&&(u8pOutEdid[i+1]==0x00)&&(u8pOutEdid[i+2]==0x00)&&(u8pOutEdid[i+3]==0xFD))
;;;946            {
;;;947                if(u8pOutEdid[i+5]>0x17)
;;;948                {
;;;949                    u8pOutEdid[i+5] = 0x17;
;;;950                }
;;;951                //if(u8pOutEdid[i+6]>0x55)
;;;952                //{
;;;953                //    u8pOutEdid[i+6] = 0x55;
;;;954                //}
;;;955                if(u8pOutEdid[i+7]>0x0F)
;;;956                {
;;;957                    u8pOutEdid[i+7] = 0x0F;
;;;958                }
;;;959                //if(u8pOutEdid[i+8]>0x5C)
;;;960                //{
;;;961                //    u8pOutEdid[i+8] = 0x5C;
;;;962                //}
;;;963                if(u8pOutEdid[i+9]>0x1E)
;;;964                {
;;;965                    u8pOutEdid[i+9] = 0x1E;
;;;966                }
;;;967            }
;;;968        }
;;;969    #endif
;;;970    
;;;971        for(i=0;i<127;i++)
;;;972        {
;;;973            l_u8CheckSum += u8pOutEdid[i];
;;;974        }
;;;975        u8pOutEdid[0x7F] = 0x100-l_u8CheckSum;
;;;976    
;;;977        // block 1
;;;978        if((u8pOutEdid[0x7E]>0)&&(u16len>128))
;;;979        {
;;;980            if((u8pOutEdid[0x80] == 0x02) && (u8pOutEdid[0x81] == 0x03))
;;;981            {
;;;982                u8 l_u8DataBlockLen = u8pOutEdid[0x82];
;;;983                u8 j = 0;
;;;984                u8 l_u8Offect = 0;
;;;985                #if _CLR_VIDEO_DATA_BLOCK_6G
;;;986                u8 l_u8VdbId = 0;
;;;987                u8 l_pu8Vdb[31]={0};
;;;988                #endif
;;;989    
;;;990                for(i=4;i<l_u8DataBlockLen;i++)
;;;991                {
;;;992                    l_u8Offect = u8pOutEdid[0x80+i]&0x1F;
;;;993                    #if _CLR_VIDEO_DATA_BLOCK_6G
;;;994                    if((u8pOutEdid[0x80+i]&0xE0)==0x40) // video data block
;;;995                    {
;;;996                        for(j=0;j<l_u8Offect;j++)
;;;997                        {
;;;998                            if(bEnInterlace&&((((u8pOutEdid[0x80+i+1+j]&0x7F)>=96)&&((u8pOutEdid[0x80+i+1+j]&0x7F)<=97))
;;;999                                ||(((u8pOutEdid[0x80+i+1+j]&0x7F)>=101)&&((u8pOutEdid[0x80+i+1+j]&0x7F)<=102))
;;;1000                               ||((u8pOutEdid[0x80+i+1+j]&0x7F)>=106)))
;;;1001                               continue;
;;;1002   
;;;1003                           if((bEnInterlace==FALSE)&&(((u8pOutEdid[0x80+i+1+j]>=96)&&(u8pOutEdid[0x80+i+1+j]<=97))
;;;1004                               ||((u8pOutEdid[0x80+i+1+j]>=101)&&(u8pOutEdid[0x80+i+1+j]<=102))
;;;1005                               ||(u8pOutEdid[0x80+i+1+j]>=106)))  //  Delete timing up to 4K60
;;;1006                           {
;;;1007                               continue;
;;;1008                           }
;;;1009                           else
;;;1010                           {
;;;1011                               l_pu8Vdb[l_u8VdbId++] = u8pOutEdid[0x80+i+1+j];
;;;1012                           }
;;;1013                       }
;;;1014                       if(l_u8VdbId != l_u8Offect)
;;;1015                       {
;;;1016                           u8pOutEdid[0x80+i] = (0x40|l_u8VdbId);
;;;1017                           for(j=0;j<l_u8VdbId;j++)
;;;1018                           {
;;;1019                               u8pOutEdid[0x80+i+1+j] = l_pu8Vdb[j];
;;;1020                           }
;;;1021                           u8pOutEdid[0x82] = u8pOutEdid[0x82] - (l_u8Offect-l_u8VdbId);
;;;1022                           l_u8DataBlockLen = u8pOutEdid[0x82];
;;;1023                           for(j=(i+1+l_u8Offect);j<127;j++)
;;;1024                           {
;;;1025                               u8pOutEdid[0x80-(l_u8Offect-l_u8VdbId)+j] = u8pInEdid[0x80+j];
;;;1026                           }
;;;1027                       }
;;;1028                       i += l_u8VdbId;
;;;1029                   }
;;;1030                   else
;;;1031                   #endif
;;;1032                   #if _SET_AUDIO_DATA_BLOCK_LIMIT_PCM20
;;;1033                   if(((u8pOutEdid[0x80+i]&0xE0)==0x20)&&(bOnlyPcm20 == TRUE)) // video data block
;;;1034                   {
;;;1035                       u8 l_u8PCMData[] = {0x09,0x04,0x07};
;;;1036                       u8pOutEdid[0x80+i] = ((u8pOutEdid[0x80+i]&0xE0)|0x03);
;;;1037                       for(j=1;j<4;j++)
;;;1038                       {
;;;1039                           u8pOutEdid[0x80+i+j] = l_u8PCMData[j-1];
;;;1040                       }
;;;1041                       for(j=i;j<127;j++)
;;;1042                       {
;;;1043                           if((0x80+j+4)>255)
;;;1044                           {
;;;1045                               break;
;;;1046                           }
;;;1047                           if((0x80+j+l_u8Offect+1)<255)
;;;1048                           {
;;;1049                               u8pOutEdid[0x80+j+4] = u8pOutEdid[0x80+j+l_u8Offect+1];
;;;1050                           }
;;;1051                           else
;;;1052                           {
;;;1053                               u8pOutEdid[0x80+j+4] = 0;
;;;1054                           }
;;;1055                       }
;;;1056                       u8pOutEdid[0x82] = u8pOutEdid[0x82] - (l_u8Offect-3);
;;;1057                       l_u8DataBlockLen = u8pOutEdid[0x82];
;;;1058                       i += 3;
;;;1059                   }
;;;1060                   else
;;;1061                   #endif
;;;1062                   #if _CLR_VSDB_HDMI_FORUM_BLOCK
;;;1063                   if((u8pOutEdid[0x80+i]&0xE0)==0x60)    // vsdb
;;;1064                   {
;;;1065                       // IEEE Registration ID: 0xC45DD8
;;;1066                       if((u8pOutEdid[0x80+i+1] == 0xD8)&&(u8pOutEdid[0x80+i+2] == 0x5D)&&(u8pOutEdid[0x80+i+3] == 0xC4))      //HDMI FORUM
;;;1067                       {
;;;1068                           for(j=i;j<127;j++)  // Delete hdmi forum block
;;;1069                           {
;;;1070                               if((0x80+j+l_u8Offect+1)<255)
;;;1071                               {
;;;1072                                   u8pOutEdid[0x80+j] = u8pOutEdid[0x80+j+l_u8Offect+1];
;;;1073                               }
;;;1074                               else
;;;1075                               {
;;;1076                                   u8pOutEdid[0x80+j] = 0;
;;;1077                               }
;;;1078                           }
;;;1079                           u8pOutEdid[0x82] = u8pOutEdid[0x82] - (l_u8Offect)-1;
;;;1080                           l_u8DataBlockLen = u8pOutEdid[0x82];
;;;1081                           i -= 1; // return to previous index
;;;1082                       }
;;;1083                       else if((u8pOutEdid[0x80+i+1] == 0x03)&&(u8pOutEdid[0x80+i+2] == 0x0C)&&(u8pOutEdid[0x80+i+3] == 0x00))
;;;1084                       {
;;;1085                           if((u8pOutEdid[0x80+i+7] > 0x3C)) // max Clock > 300 0x3C*5 = 300
;;;1086                           {
;;;1087                               u8pOutEdid[0x80+i+7] = 0x3C;
;;;1088                           }
;;;1089                           i += l_u8Offect;
;;;1090                       }
;;;1091                       else
;;;1092                           i += l_u8Offect;
;;;1093                   }
;;;1094                   else
;;;1095                   #endif
;;;1096                   #if 1
;;;1097                   if((u8pOutEdid[0x80+i]&0xE0)==0xE0)    // CTA Data
;;;1098                   {
;;;1099                       #if _CLR_YCBCR420_EDID_BLOCK
;;;1100                       if(u8pOutEdid[0x80+i+1]==0x0F)      // YCbCr 420 capability map
;;;1101                       {
;;;1102                           for(j=i;j<127;j++)  // Delete YCbCr 420 capability map
;;;1103                           {
;;;1104                               if((0x80+j+l_u8Offect+1)<255)
;;;1105                               {
;;;1106                                   u8pOutEdid[0x80+j] = u8pOutEdid[0x80+j+l_u8Offect+1];
;;;1107                               }
;;;1108                               else
;;;1109                               {
;;;1110                                   u8pOutEdid[0x80+j] = 0;
;;;1111                               }
;;;1112                           }
;;;1113                           u8pOutEdid[0x82] = u8pOutEdid[0x82] - (l_u8Offect)-1;
;;;1114                           l_u8DataBlockLen = u8pOutEdid[0x82];
;;;1115                           i -= 1;
;;;1116                       }
;;;1117                       else if(u8pOutEdid[0x80+i+1]==0x0E)     // YCbCr 420 Video data
;;;1118                       {
;;;1119                           for(j=i;j<127;j++)  // Delete YCbCr 420 Video data
;;;1120                           {
;;;1121                               if((0x80+j+l_u8Offect+1)<255)
;;;1122                               {
;;;1123                                   u8pOutEdid[0x80+j] = u8pOutEdid[0x80+j+l_u8Offect+1];
;;;1124                               }
;;;1125                               else
;;;1126                               {
;;;1127                                   u8pOutEdid[0x80+j] = 0;
;;;1128                               }
;;;1129                           }
;;;1130                           u8pOutEdid[0x82] = u8pOutEdid[0x82] - (l_u8Offect)-1;
;;;1131                           l_u8DataBlockLen = u8pOutEdid[0x82];
;;;1132                           i -= 1;
;;;1133                       }
;;;1134                       else
;;;1135                       #endif
;;;1136                       #if _CLR_HDR_BLOCK
;;;1137                       if(u8pOutEdid[0x80+i+1]==0x06)     // HDR Static Metadata
;;;1138                       {
;;;1139                           for(j=i;j<127;j++)  // Delete HDR Static Metadata
;;;1140                           {
;;;1141                               if((0x80+j+l_u8Offect+1)<255)
;;;1142                               {
;;;1143                                   u8pOutEdid[0x80+j] = u8pOutEdid[0x80+j+l_u8Offect+1];
;;;1144                               }
;;;1145                               else
;;;1146                               {
;;;1147                                   u8pOutEdid[0x80+j] = 0;
;;;1148                               }
;;;1149                           }
;;;1150                           u8pOutEdid[0x82] = u8pOutEdid[0x82] - (l_u8Offect)-1;
;;;1151                           l_u8DataBlockLen = u8pOutEdid[0x82];
;;;1152                           i -= 1;
;;;1153                       }
;;;1154                       else
;;;1155                       #endif //add by wf8421
;;;1156                       #if _SET_DOLBY_VISION_LIMIT_4K30
;;;1157                       if(u8pOutEdid[0x80+i+1]==0x01)  // dolby vision
;;;1158                       {
;;;1159                           // IEEE Registration ID: 0x00D046
;;;1160                           if((u8pOutEdid[0x80+i+2] == 0x46)&&(u8pOutEdid[0x80+i+3] == 0xD0)&&(u8pOutEdid[0x80+i+4] == 0x00))
;;;1161                           {
;;;1162                               if(l_u8Offect>6)
;;;1163                               {
;;;1164                                   if(((u8pOutEdid[0x80+i+5]&BIT6)==0)&&(u8pOutEdid[0x80+i+5]&BIT1))
;;;1165                                   {
;;;1166                                       u8pOutEdid[0x80+i+5] = u8pOutEdid[0x80+i+5]&(~BIT1);    // Remove support 2160p 60Hz
;;;1167                                   }
;;;1168                                   else
;;;1169                                       i += l_u8Offect;
;;;1170                               }
;;;1171                               else
;;;1172                                   i += l_u8Offect;
;;;1173                           }
;;;1174                           else
;;;1175                               i += l_u8Offect;
;;;1176                       }
;;;1177                       else
;;;1178                       #endif
;;;1179                       #if _CLR_DOLBY_VISION_BLOCK
;;;1180                       if(u8pOutEdid[0x80+i+1]==0x01)  // dolby vision
;;;1181                       {
;;;1182                           // IEEE Registration ID: 0x00D046
;;;1183                           if((u8pOutEdid[0x80+i+2] == 0x46)&&(u8pOutEdid[0x80+i+3] == 0xD0)&&(u8pOutEdid[0x80+i+4] == 0x00))
;;;1184                           {
;;;1185                               for(j=i;j<127;j++)  // Delete dolby vision block
;;;1186                               {
;;;1187                                   if((0x80+j+l_u8Offect+1)<255)
;;;1188                                   {
;;;1189                                       u8pOutEdid[0x80+j] = u8pOutEdid[0x80+j+l_u8Offect+1];
;;;1190                                   }
;;;1191                                   else
;;;1192                                   {
;;;1193                                       u8pOutEdid[0x80+j] = 0;
;;;1194                                   }
;;;1195                               }
;;;1196                               u8pOutEdid[0x82] = u8pOutEdid[0x82] - (l_u8Offect)-1;
;;;1197                               l_u8DataBlockLen = u8pOutEdid[0x82];
;;;1198                               i -= 1;
;;;1199                           }
;;;1200                           else
;;;1201                               i += l_u8Offect;
;;;1202                       }
;;;1203                       else
;;;1204                       #endif
;;;1205                           i += l_u8Offect;
;;;1206                   }
;;;1207                   else
;;;1208                   #endif
;;;1209                   {
;;;1210                       i += l_u8Offect;
;;;1211                   }
;;;1212               }
;;;1213           }
;;;1214           l_u8CheckSum = 0;
;;;1215           for(i=0;i<127;i++)
;;;1216           {
;;;1217               l_u8CheckSum += u8pOutEdid[i+0x80];
;;;1218           }
;;;1219           u8pOutEdid[0x7F+0x80] = 0x100-l_u8CheckSum;
;;;1220       }
;;;1221   
;;;1222       return TRUE;
;;;1223   }
000024  b013              ADD      sp,sp,#0x4c
000026  e8bd8ff0          POP      {r4-r11,pc}
                  |L35.42|
00002a  4651              MOV      r1,r10                ;903
00002c  4620              MOV      r0,r4                 ;903
00002e  9a11              LDR      r2,[sp,#0x44]         ;903
000030  f7fffffe          BL       __aeabi_memcpy
000034  7a20              LDRB     r0,[r4,#8]            ;907
000036  284c              CMP      r0,#0x4c              ;907
000038  d107              BNE      |L35.74|
00003a  7a60              LDRB     r0,[r4,#9]            ;907
00003c  282d              CMP      r0,#0x2d              ;907
00003e  d104              BNE      |L35.74|
000040  2000              MOVS     r0,#0                 ;909
000042  7320              STRB     r0,[r4,#0xc]          ;909
000044  7360              STRB     r0,[r4,#0xd]          ;910
000046  73a0              STRB     r0,[r4,#0xe]          ;911
000048  73e0              STRB     r0,[r4,#0xf]          ;912
                  |L35.74|
00004a  f8940038          LDRB     r0,[r4,#0x38]         ;916
00004e  f894103a          LDRB     r1,[r4,#0x3a]         ;916
000052  1109              ASRS     r1,r1,#4              ;916
000054  ea402001          ORR      r0,r0,r1,LSL #8       ;916
000058  f5b06f70          CMP      r0,#0xf00             ;916
00005c  d009              BEQ      |L35.114|
00005e  f8940038          LDRB     r0,[r4,#0x38]         ;917
000062  f894103a          LDRB     r1,[r4,#0x3a]         ;917
000066  1109              ASRS     r1,r1,#4              ;917
000068  ea402001          ORR      r0,r0,r1,LSL #8       ;917
00006c  f5b05f80          CMP      r0,#0x1000            ;917
000070  d11e              BNE      |L35.176|
                  |L35.114|
000072  f894003b          LDRB     r0,[r4,#0x3b]         ;918
000076  f894103d          LDRB     r1,[r4,#0x3d]         ;918
00007a  1109              ASRS     r1,r1,#4              ;918
00007c  ea402001          ORR      r0,r0,r1,LSL #8       ;918
000080  f5b06f07          CMP      r0,#0x870             ;918
000084  d114              BNE      |L35.176|
000086  f8940036          LDRB     r0,[r4,#0x36]         ;920
00008a  f8941037          LDRB     r1,[r4,#0x37]         ;920
00008e  ea402001          ORR      r0,r0,r1,LSL #8       ;920
000092  f2475130          MOV      r1,#0x7530            ;920
000096  4288              CMP      r0,r1                 ;920
000098  dd0a              BLE      |L35.176|
00009a  2500              MOVS     r5,#0                 ;922
00009c  e006              B        |L35.172|
                  |L35.158|
00009e  a80a              ADD      r0,sp,#0x28           ;924
0000a0  5d41              LDRB     r1,[r0,r5]            ;924
0000a2  f1050036          ADD      r0,r5,#0x36           ;924
0000a6  5421              STRB     r1,[r4,r0]            ;924
0000a8  1c68              ADDS     r0,r5,#1              ;922
0000aa  b2c5              UXTB     r5,r0                 ;922
                  |L35.172|
0000ac  2d12              CMP      r5,#0x12              ;922
0000ae  dbf6              BLT      |L35.158|
                  |L35.176|
0000b0  2500              MOVS     r5,#0                 ;971
0000b2  e005              B        |L35.192|
                  |L35.180|
0000b4  5d60              LDRB     r0,[r4,r5]            ;973
0000b6  4448              ADD      r0,r0,r9              ;973
0000b8  f00009ff          AND      r9,r0,#0xff           ;973
0000bc  1c68              ADDS     r0,r5,#1              ;971
0000be  b2c5              UXTB     r5,r0                 ;971
                  |L35.192|
0000c0  2d7f              CMP      r5,#0x7f              ;971
0000c2  dbf7              BLT      |L35.180|
0000c4  f1c90000          RSB      r0,r9,#0              ;975
0000c8  f884007f          STRB     r0,[r4,#0x7f]         ;975
0000cc  f894007e          LDRB     r0,[r4,#0x7e]         ;978
0000d0  2800              CMP      r0,#0                 ;978
                  |L35.210|
0000d2  dd72              BLE      |L35.442|
0000d4  9811              LDR      r0,[sp,#0x44]         ;978
0000d6  2880              CMP      r0,#0x80              ;978
0000d8  ddfb              BLE      |L35.210|
0000da  f8940080          LDRB     r0,[r4,#0x80]         ;980
0000de  2802              CMP      r0,#2                 ;980
                  |L35.224|
0000e0  d16c              BNE      |L35.444|
0000e2  f8940081          LDRB     r0,[r4,#0x81]         ;980
0000e6  2803              CMP      r0,#3                 ;980
0000e8  d1fa              BNE      |L35.224|
0000ea  f8940082          LDRB     r0,[r4,#0x82]         ;982
0000ee  9009              STR      r0,[sp,#0x24]         ;982
0000f0  2600              MOVS     r6,#0                 ;983
0000f2  2700              MOVS     r7,#0                 ;984
0000f4  46b0              MOV      r8,r6                 ;986
0000f6  2120              MOVS     r1,#0x20              ;987
0000f8  a801              ADD      r0,sp,#4              ;987
0000fa  f7fffffe          BL       __aeabi_memclr4
0000fe  2504              MOVS     r5,#4                 ;990
000100  e1b1              B        |L35.1126|
                  |L35.258|
000102  f1050080          ADD      r0,r5,#0x80           ;992
000106  5c20              LDRB     r0,[r4,r0]            ;992
000108  f000071f          AND      r7,r0,#0x1f           ;992
00010c  f1050080          ADD      r0,r5,#0x80           ;994
000110  5c20              LDRB     r0,[r4,r0]            ;994
000112  f00000e0          AND      r0,r0,#0xe0           ;994
000116  2840              CMP      r0,#0x40              ;994
000118  d17e              BNE      |L35.536|
00011a  2600              MOVS     r6,#0                 ;996
00011c  e05c              B        |L35.472|
                  |L35.286|
00011e  f1bb0f00          CMP      r11,#0                ;998
000122  d028              BEQ      |L35.374|
000124  f1050081          ADD      r0,r5,#0x81           ;998
000128  4430              ADD      r0,r0,r6              ;998
00012a  5c20              LDRB     r0,[r4,r0]            ;998
00012c  f000007f          AND      r0,r0,#0x7f           ;998
000130  2860              CMP      r0,#0x60              ;998
000132  db07              BLT      |L35.324|
000134  f1050081          ADD      r0,r5,#0x81           ;998
000138  4430              ADD      r0,r0,r6              ;998
00013a  5c20              LDRB     r0,[r4,r0]            ;998
00013c  f000007f          AND      r0,r0,#0x7f           ;998
000140  2861              CMP      r0,#0x61              ;998
000142  dd17              BLE      |L35.372|
                  |L35.324|
000144  f1050081          ADD      r0,r5,#0x81           ;999
000148  4430              ADD      r0,r0,r6              ;999
00014a  5c20              LDRB     r0,[r4,r0]            ;999
00014c  f000007f          AND      r0,r0,#0x7f           ;999
000150  2865              CMP      r0,#0x65              ;999
000152  db07              BLT      |L35.356|
000154  f1050081          ADD      r0,r5,#0x81           ;999
000158  4430              ADD      r0,r0,r6              ;999
00015a  5c20              LDRB     r0,[r4,r0]            ;999
00015c  f000007f          AND      r0,r0,#0x7f           ;999
000160  2866              CMP      r0,#0x66              ;999
000162  dd07              BLE      |L35.372|
                  |L35.356|
000164  f1050081          ADD      r0,r5,#0x81           ;1000
000168  4430              ADD      r0,r0,r6              ;1000
00016a  5c20              LDRB     r0,[r4,r0]            ;1000
00016c  f000007f          AND      r0,r0,#0x7f           ;1000
000170  286a              CMP      r0,#0x6a              ;1000
000172  db00              BLT      |L35.374|
                  |L35.372|
000174  e02e              B        |L35.468|
                  |L35.374|
000176  f1bb0f00          CMP      r11,#0                ;1003
00017a  d120              BNE      |L35.446|
00017c  f1050081          ADD      r0,r5,#0x81           ;1003
000180  4430              ADD      r0,r0,r6              ;1003
000182  5c20              LDRB     r0,[r4,r0]            ;1003
000184  2860              CMP      r0,#0x60              ;1003
000186  db05              BLT      |L35.404|
000188  f1050081          ADD      r0,r5,#0x81           ;1003
00018c  4430              ADD      r0,r0,r6              ;1003
00018e  5c20              LDRB     r0,[r4,r0]            ;1003
000190  2861              CMP      r0,#0x61              ;1003
000192  dd11              BLE      |L35.440|
                  |L35.404|
000194  f1050081          ADD      r0,r5,#0x81           ;1004
000198  4430              ADD      r0,r0,r6              ;1004
00019a  5c20              LDRB     r0,[r4,r0]            ;1004
00019c  2865              CMP      r0,#0x65              ;1004
00019e  db05              BLT      |L35.428|
0001a0  f1050081          ADD      r0,r5,#0x81           ;1004
0001a4  4430              ADD      r0,r0,r6              ;1004
0001a6  5c20              LDRB     r0,[r4,r0]            ;1004
0001a8  2866              CMP      r0,#0x66              ;1004
0001aa  dd05              BLE      |L35.440|
                  |L35.428|
0001ac  f1050081          ADD      r0,r5,#0x81           ;1005
0001b0  4430              ADD      r0,r0,r6              ;1005
0001b2  5c20              LDRB     r0,[r4,r0]            ;1005
0001b4  286a              CMP      r0,#0x6a              ;1005
0001b6  db02              BLT      |L35.446|
                  |L35.440|
0001b8  e00c              B        |L35.468|
                  |L35.442|
0001ba  e16b              B        |L35.1172|
                  |L35.444|
0001bc  e158              B        |L35.1136|
                  |L35.446|
0001be  f1050081          ADD      r0,r5,#0x81           ;1011
0001c2  4430              ADD      r0,r0,r6              ;1011
0001c4  5c22              LDRB     r2,[r4,r0]            ;1011
0001c6  4640              MOV      r0,r8                 ;1011
0001c8  1c41              ADDS     r1,r0,#1              ;1011
0001ca  f00108ff          AND      r8,r1,#0xff           ;1011
0001ce  a901              ADD      r1,sp,#4              ;1011
0001d0  540a              STRB     r2,[r1,r0]            ;1011
0001d2  bf00              NOP                            ;1001
                  |L35.468|
0001d4  1c70              ADDS     r0,r6,#1              ;996
0001d6  b2c6              UXTB     r6,r0                 ;996
                  |L35.472|
0001d8  42be              CMP      r6,r7                 ;996
0001da  dba0              BLT      |L35.286|
0001dc  45b8              CMP      r8,r7                 ;1014
0001de  d02d              BEQ      |L35.572|
0001e0  f0480140          ORR      r1,r8,#0x40           ;1016
0001e4  f1050080          ADD      r0,r5,#0x80           ;1016
0001e8  5421              STRB     r1,[r4,r0]            ;1016
0001ea  2600              MOVS     r6,#0                 ;1017
0001ec  e007              B        |L35.510|
                  |L35.494|
0001ee  a801              ADD      r0,sp,#4              ;1019
0001f0  5d81              LDRB     r1,[r0,r6]            ;1019
0001f2  f1050081          ADD      r0,r5,#0x81           ;1019
0001f6  4430              ADD      r0,r0,r6              ;1019
0001f8  5421              STRB     r1,[r4,r0]            ;1019
0001fa  1c70              ADDS     r0,r6,#1              ;1017
0001fc  b2c6              UXTB     r6,r0                 ;1017
                  |L35.510|
0001fe  4546              CMP      r6,r8                 ;1017
000200  dbf5              BLT      |L35.494|
000202  f8140f82          LDRB     r0,[r4,#0x82]!        ;1021
000206  eba70108          SUB      r1,r7,r8              ;1021
00020a  1a40              SUBS     r0,r0,r1              ;1021
00020c  7020              STRB     r0,[r4,#0]            ;1021
00020e  f8140982          LDRB     r0,[r4],#-0x82        ;1022
000212  9009              STR      r0,[sp,#0x24]         ;1022
000214  1c68              ADDS     r0,r5,#1              ;1023
000216  e000              B        |L35.538|
                  |L35.536|
000218  e014              B        |L35.580|
                  |L35.538|
00021a  4438              ADD      r0,r0,r7              ;1023
00021c  b2c6              UXTB     r6,r0                 ;1023
00021e  e00b              B        |L35.568|
                  |L35.544|
000220  f1060080          ADD      r0,r6,#0x80           ;1025
000224  f81a0000          LDRB     r0,[r10,r0]           ;1025
000228  eba70108          SUB      r1,r7,r8              ;1025
00022c  f1c10180          RSB      r1,r1,#0x80           ;1025
000230  4431              ADD      r1,r1,r6              ;1025
000232  5460              STRB     r0,[r4,r1]            ;1025
000234  1c70              ADDS     r0,r6,#1              ;1023
000236  b2c6              UXTB     r6,r0                 ;1023
                  |L35.568|
000238  2e7f              CMP      r6,#0x7f              ;1023
00023a  dbf1              BLT      |L35.544|
                  |L35.572|
00023c  eb050008          ADD      r0,r5,r8              ;1028
000240  b2c5              UXTB     r5,r0                 ;1028
000242  e10e              B        |L35.1122|
                  |L35.580|
000244  f1050080          ADD      r0,r5,#0x80           ;1033
000248  5c20              LDRB     r0,[r4,r0]            ;1033
00024a  f00000e0          AND      r0,r0,#0xe0           ;1033
00024e  2820              CMP      r0,#0x20              ;1033
000250  d145              BNE      |L35.734|
000252  981c              LDR      r0,[sp,#0x70]         ;1033
000254  2801              CMP      r0,#1                 ;1033
000256  d142              BNE      |L35.734|
000258  a06d              ADR      r0,|L35.1040|
00025a  6800              LDR      r0,[r0,#0]            ;1035
00025c  9000              STR      r0,[sp,#0]            ;1035
00025e  f1050080          ADD      r0,r5,#0x80           ;1036
000262  5c20              LDRB     r0,[r4,r0]            ;1036
000264  f00000e0          AND      r0,r0,#0xe0           ;1036
000268  1cc0              ADDS     r0,r0,#3              ;1036
00026a  f1050180          ADD      r1,r5,#0x80           ;1036
00026e  5460              STRB     r0,[r4,r1]            ;1036
000270  2601              MOVS     r6,#1                 ;1037
000272  e008              B        |L35.646|
                  |L35.628|
000274  1e70              SUBS     r0,r6,#1              ;1039
000276  f81d1000          LDRB     r1,[sp,r0]            ;1039
00027a  f1050080          ADD      r0,r5,#0x80           ;1039
00027e  4430              ADD      r0,r0,r6              ;1039
000280  5421              STRB     r1,[r4,r0]            ;1039
000282  1c70              ADDS     r0,r6,#1              ;1037
000284  b2c6              UXTB     r6,r0                 ;1037
                  |L35.646|
000286  2e04              CMP      r6,#4                 ;1037
000288  dbf4              BLT      |L35.628|
00028a  462e              MOV      r6,r5                 ;1041
00028c  e019              B        |L35.706|
                  |L35.654|
00028e  f1060084          ADD      r0,r6,#0x84           ;1043
000292  28ff              CMP      r0,#0xff              ;1043
000294  dd00              BLE      |L35.664|
000296  e016              B        |L35.710|
                  |L35.664|
000298  f1060080          ADD      r0,r6,#0x80           ;1047
00029c  4438              ADD      r0,r0,r7              ;1047
00029e  1c40              ADDS     r0,r0,#1              ;1047
0002a0  28ff              CMP      r0,#0xff              ;1047
0002a2  da08              BGE      |L35.694|
0002a4  f1060080          ADD      r0,r6,#0x80           ;1049
0002a8  4438              ADD      r0,r0,r7              ;1049
0002aa  1c40              ADDS     r0,r0,#1              ;1049
0002ac  5c21              LDRB     r1,[r4,r0]            ;1049
0002ae  f1060084          ADD      r0,r6,#0x84           ;1049
0002b2  5421              STRB     r1,[r4,r0]            ;1049
0002b4  e003              B        |L35.702|
                  |L35.694|
0002b6  2100              MOVS     r1,#0                 ;1053
0002b8  f1060084          ADD      r0,r6,#0x84           ;1053
0002bc  5421              STRB     r1,[r4,r0]            ;1053
                  |L35.702|
0002be  1c70              ADDS     r0,r6,#1              ;1041
0002c0  b2c6              UXTB     r6,r0                 ;1041
                  |L35.706|
0002c2  2e7f              CMP      r6,#0x7f              ;1041
0002c4  dbe3              BLT      |L35.654|
                  |L35.710|
0002c6  bf00              NOP                            ;1045
0002c8  f8141f82          LDRB     r1,[r4,#0x82]!        ;1056
0002cc  1ef8              SUBS     r0,r7,#3              ;1056
0002ce  1a08              SUBS     r0,r1,r0              ;1056
0002d0  7020              STRB     r0,[r4,#0]            ;1056
0002d2  f8140982          LDRB     r0,[r4],#-0x82        ;1057
0002d6  9009              STR      r0,[sp,#0x24]         ;1057
0002d8  1ce8              ADDS     r0,r5,#3              ;1058
0002da  b2c5              UXTB     r5,r0                 ;1058
0002dc  e0c1              B        |L35.1122|
                  |L35.734|
0002de  f1050080          ADD      r0,r5,#0x80           ;1063
0002e2  5c20              LDRB     r0,[r4,r0]            ;1063
0002e4  f00000e0          AND      r0,r0,#0xe0           ;1063
0002e8  2860              CMP      r0,#0x60              ;1063
0002ea  d14f              BNE      |L35.908|
0002ec  f1050081          ADD      r0,r5,#0x81           ;1066
0002f0  5c20              LDRB     r0,[r4,r0]            ;1066
0002f2  28d8              CMP      r0,#0xd8              ;1066
0002f4  d12d              BNE      |L35.850|
0002f6  f1050082          ADD      r0,r5,#0x82           ;1066
0002fa  5c20              LDRB     r0,[r4,r0]            ;1066
0002fc  285d              CMP      r0,#0x5d              ;1066
0002fe  d128              BNE      |L35.850|
000300  f1050083          ADD      r0,r5,#0x83           ;1066
000304  5c20              LDRB     r0,[r4,r0]            ;1066
000306  28c4              CMP      r0,#0xc4              ;1066
000308  d123              BNE      |L35.850|
00030a  462e              MOV      r6,r5                 ;1068
00030c  e014              B        |L35.824|
                  |L35.782|
00030e  f1060080          ADD      r0,r6,#0x80           ;1070
000312  4438              ADD      r0,r0,r7              ;1070
000314  1c40              ADDS     r0,r0,#1              ;1070
000316  28ff              CMP      r0,#0xff              ;1070
000318  da08              BGE      |L35.812|
00031a  f1060080          ADD      r0,r6,#0x80           ;1072
00031e  4438              ADD      r0,r0,r7              ;1072
000320  1c40              ADDS     r0,r0,#1              ;1072
000322  5c21              LDRB     r1,[r4,r0]            ;1072
000324  f1060080          ADD      r0,r6,#0x80           ;1072
000328  5421              STRB     r1,[r4,r0]            ;1072
00032a  e003              B        |L35.820|
                  |L35.812|
00032c  2100              MOVS     r1,#0                 ;1076
00032e  f1060080          ADD      r0,r6,#0x80           ;1076
000332  5421              STRB     r1,[r4,r0]            ;1076
                  |L35.820|
000334  1c70              ADDS     r0,r6,#1              ;1068
000336  b2c6              UXTB     r6,r0                 ;1068
                  |L35.824|
000338  2e7f              CMP      r6,#0x7f              ;1068
00033a  dbe8              BLT      |L35.782|
00033c  f8140f82          LDRB     r0,[r4,#0x82]!        ;1079
000340  1bc0              SUBS     r0,r0,r7              ;1079
000342  1e40              SUBS     r0,r0,#1              ;1079
000344  7020              STRB     r0,[r4,#0]            ;1079
000346  f8140982          LDRB     r0,[r4],#-0x82        ;1080
00034a  9009              STR      r0,[sp,#0x24]         ;1080
00034c  1e68              SUBS     r0,r5,#1              ;1081
00034e  b2c5              UXTB     r5,r0                 ;1081
000350  e087              B        |L35.1122|
                  |L35.850|
000352  f1050081          ADD      r0,r5,#0x81           ;1083
000356  5c20              LDRB     r0,[r4,r0]            ;1083
000358  2803              CMP      r0,#3                 ;1083
00035a  d114              BNE      |L35.902|
00035c  f1050082          ADD      r0,r5,#0x82           ;1083
000360  5c20              LDRB     r0,[r4,r0]            ;1083
000362  280c              CMP      r0,#0xc               ;1083
000364  d10f              BNE      |L35.902|
000366  f1050083          ADD      r0,r5,#0x83           ;1083
00036a  5c20              LDRB     r0,[r4,r0]            ;1083
00036c  b958              CBNZ     r0,|L35.902|
00036e  f1050087          ADD      r0,r5,#0x87           ;1085
000372  5c20              LDRB     r0,[r4,r0]            ;1085
000374  283c              CMP      r0,#0x3c              ;1085
000376  dd03              BLE      |L35.896|
000378  213c              MOVS     r1,#0x3c              ;1087
00037a  f1050087          ADD      r0,r5,#0x87           ;1087
00037e  5421              STRB     r1,[r4,r0]            ;1087
                  |L35.896|
000380  19e8              ADDS     r0,r5,r7              ;1089
000382  b2c5              UXTB     r5,r0                 ;1089
000384  e06d              B        |L35.1122|
                  |L35.902|
000386  19e8              ADDS     r0,r5,r7              ;1092
000388  b2c5              UXTB     r5,r0                 ;1092
00038a  e06a              B        |L35.1122|
                  |L35.908|
00038c  f1050080          ADD      r0,r5,#0x80           ;1097
000390  5c20              LDRB     r0,[r4,r0]            ;1097
000392  f00000e0          AND      r0,r0,#0xe0           ;1097
000396  28e0              CMP      r0,#0xe0              ;1097
000398  d161              BNE      |L35.1118|
00039a  f1050081          ADD      r0,r5,#0x81           ;1100
00039e  5c20              LDRB     r0,[r4,r0]            ;1100
0003a0  280f              CMP      r0,#0xf               ;1100
0003a2  d123              BNE      |L35.1004|
0003a4  462e              MOV      r6,r5                 ;1102
0003a6  e014              B        |L35.978|
                  |L35.936|
0003a8  f1060080          ADD      r0,r6,#0x80           ;1104
0003ac  4438              ADD      r0,r0,r7              ;1104
0003ae  1c40              ADDS     r0,r0,#1              ;1104
0003b0  28ff              CMP      r0,#0xff              ;1104
0003b2  da08              BGE      |L35.966|
0003b4  f1060080          ADD      r0,r6,#0x80           ;1106
0003b8  4438              ADD      r0,r0,r7              ;1106
0003ba  1c40              ADDS     r0,r0,#1              ;1106
0003bc  5c21              LDRB     r1,[r4,r0]            ;1106
0003be  f1060080          ADD      r0,r6,#0x80           ;1106
0003c2  5421              STRB     r1,[r4,r0]            ;1106
0003c4  e003              B        |L35.974|
                  |L35.966|
0003c6  2100              MOVS     r1,#0                 ;1110
0003c8  f1060080          ADD      r0,r6,#0x80           ;1110
0003cc  5421              STRB     r1,[r4,r0]            ;1110
                  |L35.974|
0003ce  1c70              ADDS     r0,r6,#1              ;1102
0003d0  b2c6              UXTB     r6,r0                 ;1102
                  |L35.978|
0003d2  2e7f              CMP      r6,#0x7f              ;1102
0003d4  dbe8              BLT      |L35.936|
0003d6  f8140f82          LDRB     r0,[r4,#0x82]!        ;1113
0003da  1bc0              SUBS     r0,r0,r7              ;1113
0003dc  1e40              SUBS     r0,r0,#1              ;1113
0003de  7020              STRB     r0,[r4,#0]            ;1113
0003e0  f8140982          LDRB     r0,[r4],#-0x82        ;1114
0003e4  9009              STR      r0,[sp,#0x24]         ;1114
0003e6  1e68              SUBS     r0,r5,#1              ;1115
0003e8  b2c5              UXTB     r5,r0                 ;1115
0003ea  e03a              B        |L35.1122|
                  |L35.1004|
0003ec  f1050081          ADD      r0,r5,#0x81           ;1117
0003f0  5c20              LDRB     r0,[r4,r0]            ;1117
0003f2  280e              CMP      r0,#0xe               ;1117
0003f4  d130              BNE      |L35.1112|
0003f6  462e              MOV      r6,r5                 ;1119
0003f8  e021              B        |L35.1086|
0003fa  0000              DCW      0x0000
                  |L35.1020|
0003fc  047400            DCB      4,"t",0
0003ff  30f2705a          DCB      "0",242,"pZ",128,176,"X",138,0
000403  80b0588a
000407  00      
000408  20c23100          DCB      " ",194,"1",0
00040c  00                DCB      0
00040d  1e00              DCB      30,0
00040f  00                DCB      0
                  |L35.1040|
000410  09040700          DCB      "\t",4,"\a",0
                  |L35.1044|
000414  f1060080          ADD      r0,r6,#0x80           ;1121
000418  4438              ADD      r0,r0,r7              ;1121
00041a  1c40              ADDS     r0,r0,#1              ;1121
00041c  28ff              CMP      r0,#0xff              ;1121
00041e  da08              BGE      |L35.1074|
000420  f1060080          ADD      r0,r6,#0x80           ;1123
000424  4438              ADD      r0,r0,r7              ;1123
000426  1c40              ADDS     r0,r0,#1              ;1123
000428  5c21              LDRB     r1,[r4,r0]            ;1123
00042a  f1060080          ADD      r0,r6,#0x80           ;1123
00042e  5421              STRB     r1,[r4,r0]            ;1123
000430  e003              B        |L35.1082|
                  |L35.1074|
000432  2100              MOVS     r1,#0                 ;1127
000434  f1060080          ADD      r0,r6,#0x80           ;1127
000438  5421              STRB     r1,[r4,r0]            ;1127
                  |L35.1082|
00043a  1c70              ADDS     r0,r6,#1              ;1119
00043c  b2c6              UXTB     r6,r0                 ;1119
                  |L35.1086|
00043e  2e7f              CMP      r6,#0x7f              ;1119
000440  dbe8              BLT      |L35.1044|
000442  f8140f82          LDRB     r0,[r4,#0x82]!        ;1130
000446  1bc0              SUBS     r0,r0,r7              ;1130
000448  1e40              SUBS     r0,r0,#1              ;1130
00044a  7020              STRB     r0,[r4,#0]            ;1130
00044c  f8140982          LDRB     r0,[r4],#-0x82        ;1131
000450  9009              STR      r0,[sp,#0x24]         ;1131
000452  1e68              SUBS     r0,r5,#1              ;1132
000454  b2c5              UXTB     r5,r0                 ;1132
000456  e004              B        |L35.1122|
                  |L35.1112|
000458  19e8              ADDS     r0,r5,r7              ;1205
00045a  b2c5              UXTB     r5,r0                 ;1205
00045c  e001              B        |L35.1122|
                  |L35.1118|
00045e  19e8              ADDS     r0,r5,r7              ;1210
000460  b2c5              UXTB     r5,r0                 ;1210
                  |L35.1122|
000462  1c68              ADDS     r0,r5,#1              ;990
000464  b2c5              UXTB     r5,r0                 ;990
                  |L35.1126|
000466  9809              LDR      r0,[sp,#0x24]         ;990
000468  4285              CMP      r5,r0                 ;990
00046a  f6ffae4a          BLT      |L35.258|
00046e  bf00              NOP                            ;1213
                  |L35.1136|
000470  f04f0900          MOV      r9,#0                 ;1214
000474  2500              MOVS     r5,#0                 ;1215
000476  e007              B        |L35.1160|
                  |L35.1144|
000478  f1050080          ADD      r0,r5,#0x80           ;1217
00047c  5c20              LDRB     r0,[r4,r0]            ;1217
00047e  4448              ADD      r0,r0,r9              ;1217
000480  f00009ff          AND      r9,r0,#0xff           ;1217
000484  1c68              ADDS     r0,r5,#1              ;1215
000486  b2c5              UXTB     r5,r0                 ;1215
                  |L35.1160|
000488  2d7f              CMP      r5,#0x7f              ;1215
00048a  dbf5              BLT      |L35.1144|
00048c  f1c90000          RSB      r0,r9,#0              ;1219
000490  f88400ff          STRB     r0,[r4,#0xff]         ;1219
                  |L35.1172|
000494  2001              MOVS     r0,#1                 ;1222
000496  e5c5              B        |L35.36|
;;;1224   
                          ENDP


                          AREA ||i.mapp_GetEdidPhysicalAddress||, CODE, READONLY, ALIGN=1

                  mapp_GetEdidPhysicalAddress PROC
;;;1708   
;;;1709   u16 mapp_GetEdidPhysicalAddress(u8 *pu8EdidBuf)
000000  b510              PUSH     {r4,lr}
;;;1710   {
000002  4602              MOV      r2,r0
;;;1711       u8 i;
;;;1712       u16 l_u16PhyAddr = 0;
000004  2000              MOVS     r0,#0
;;;1713   
;;;1714       if(pu8EdidBuf[0x7E] != 0)
000006  f892307e          LDRB     r3,[r2,#0x7e]
00000a  b31b              CBZ      r3,|L36.84|
;;;1715       {
;;;1716           for(i=0; i<128;i++)
00000c  2100              MOVS     r1,#0
00000e  e01e              B        |L36.78|
                  |L36.16|
;;;1717           {
;;;1718               if((pu8EdidBuf[0x80+i]&0xE0)==0x60)
000010  f1010380          ADD      r3,r1,#0x80
000014  5cd3              LDRB     r3,[r2,r3]
000016  f00303e0          AND      r3,r3,#0xe0
00001a  2b60              CMP      r3,#0x60
00001c  d115              BNE      |L36.74|
;;;1719               {
;;;1720                   if((pu8EdidBuf[0x80+i+1]==0x03)
00001e  f1010381          ADD      r3,r1,#0x81
000022  5cd3              LDRB     r3,[r2,r3]
000024  2b03              CMP      r3,#3
000026  d110              BNE      |L36.74|
;;;1721                       &&(pu8EdidBuf[0x80+i+2]==0x0C)
000028  f1010382          ADD      r3,r1,#0x82
00002c  5cd3              LDRB     r3,[r2,r3]
00002e  2b0c              CMP      r3,#0xc
000030  d10b              BNE      |L36.74|
;;;1722                       &&(pu8EdidBuf[0x80+i+3]==0x00))
000032  f1010383          ADD      r3,r1,#0x83
000036  5cd3              LDRB     r3,[r2,r3]
000038  b93b              CBNZ     r3,|L36.74|
;;;1723                   {
;;;1724                       l_u16PhyAddr = (pu8EdidBuf[0x80+i+4]<<8)|(pu8EdidBuf[0x80+i+5]);
00003a  f1010385          ADD      r3,r1,#0x85
00003e  5cd4              LDRB     r4,[r2,r3]
000040  1e5b              SUBS     r3,r3,#1
000042  5cd3              LDRB     r3,[r2,r3]
000044  ea442003          ORR      r0,r4,r3,LSL #8
;;;1725                       break;
000048  e003              B        |L36.82|
                  |L36.74|
00004a  1c4b              ADDS     r3,r1,#1              ;1716
00004c  b2d9              UXTB     r1,r3                 ;1716
                  |L36.78|
00004e  2980              CMP      r1,#0x80              ;1716
000050  dbde              BLT      |L36.16|
                  |L36.82|
000052  bf00              NOP      
                  |L36.84|
;;;1726                   }
;;;1727               }
;;;1728           }
;;;1729       }
;;;1730       return l_u16PhyAddr;
;;;1731   }
000054  bd10              POP      {r4,pc}
;;;1732   
                          ENDP


                          AREA ||i.mapp_RevisionMake||, CODE, READONLY, ALIGN=2

                  mapp_RevisionMake PROC
;;;2144   
;;;2145   void mapp_RevisionMake(void)
000000  e92d47f0          PUSH     {r4-r10,lr}
;;;2146   {
;;;2147       u16 l_u16Year;
;;;2148       u8  l_u8Month;
;;;2149       u8  l_u8Date;
;;;2150       u8  l_u8Hour;
;;;2151       u8  l_u8minute;
;;;2152       u8  l_u8Second;
;;;2153   
;;;2154       switch(DataStr[2])      //月份字符转成日期数字，先判断第三个字幕，再判断第二个字幕，获取月份
000004  485a              LDR      r0,|L37.368|
000006  7880              LDRB     r0,[r0,#2]  ; DataStr
000008  2870              CMP      r0,#0x70
00000a  d030              BEQ      |L37.110|
00000c  dc0c              BGT      |L37.40|
00000e  2867              CMP      r0,#0x67
000010  d02b              BEQ      |L37.106|
000012  dc04              BGT      |L37.30|
000014  2862              CMP      r0,#0x62
000016  d019              BEQ      |L37.76|
000018  2863              CMP      r0,#0x63
00001a  d130              BNE      |L37.126|
00001c  e02d              B        |L37.122|
                  |L37.30|
00001e  286c              CMP      r0,#0x6c
000020  d021              BEQ      |L37.102|
000022  286e              CMP      r0,#0x6e
000024  d12b              BNE      |L37.126|
000026  e008              B        |L37.58|
                  |L37.40|
000028  2872              CMP      r0,#0x72
00002a  d011              BEQ      |L37.80|
00002c  2874              CMP      r0,#0x74
00002e  d020              BEQ      |L37.114|
000030  2876              CMP      r0,#0x76
000032  d020              BEQ      |L37.118|
000034  2879              CMP      r0,#0x79
000036  d122              BNE      |L37.126|
000038  e013              B        |L37.98|
                  |L37.58|
;;;2155       {
;;;2156           case 'n':   // Jan / Jun
;;;2157               {
;;;2158                   l_u8Month = DataStr[1] == 'a' ? 1 : 6;
00003a  484d              LDR      r0,|L37.368|
00003c  7840              LDRB     r0,[r0,#1]  ; DataStr
00003e  2861              CMP      r0,#0x61
000040  d101              BNE      |L37.70|
000042  2001              MOVS     r0,#1
000044  e000              B        |L37.72|
                  |L37.70|
000046  2006              MOVS     r0,#6
                  |L37.72|
000048  4604              MOV      r4,r0
;;;2159               }
;;;2160               break;
00004a  e018              B        |L37.126|
                  |L37.76|
;;;2161           case 'b':   // Feb
;;;2162               {
;;;2163                   l_u8Month = 2;
00004c  2402              MOVS     r4,#2
;;;2164               }
;;;2165               break;
00004e  e016              B        |L37.126|
                  |L37.80|
;;;2166           case 'r':   // Mar / Apr
;;;2167               {
;;;2168                   l_u8Month = DataStr[1] == 'a' ? 3 : 4;
000050  4847              LDR      r0,|L37.368|
000052  7840              LDRB     r0,[r0,#1]  ; DataStr
000054  2861              CMP      r0,#0x61
000056  d101              BNE      |L37.92|
000058  2003              MOVS     r0,#3
00005a  e000              B        |L37.94|
                  |L37.92|
00005c  2004              MOVS     r0,#4
                  |L37.94|
00005e  4604              MOV      r4,r0
;;;2169               }
;;;2170               break;
000060  e00d              B        |L37.126|
                  |L37.98|
;;;2171           case 'y':   // May
;;;2172               {
;;;2173                   l_u8Month = 5;
000062  2405              MOVS     r4,#5
;;;2174               }
;;;2175               break;
000064  e00b              B        |L37.126|
                  |L37.102|
;;;2176           case 'l':   // Jul
;;;2177               {
;;;2178                   l_u8Month = 7;
000066  2407              MOVS     r4,#7
;;;2179               }
;;;2180               break;
000068  e009              B        |L37.126|
                  |L37.106|
;;;2181           case 'g':   // Aug
;;;2182               {
;;;2183                   l_u8Month = 8;
00006a  2408              MOVS     r4,#8
;;;2184               }
;;;2185               break;
00006c  e007              B        |L37.126|
                  |L37.110|
;;;2186           case 'p':   // Sep
;;;2187               {
;;;2188                   l_u8Month = 9;
00006e  2409              MOVS     r4,#9
;;;2189               }
;;;2190               break;
000070  e005              B        |L37.126|
                  |L37.114|
;;;2191           case 't':   // Oct
;;;2192               {
;;;2193                   l_u8Month = 10;
000072  240a              MOVS     r4,#0xa
;;;2194               }
;;;2195               break;
000074  e003              B        |L37.126|
                  |L37.118|
;;;2196           case 'v':   // Nov
;;;2197               {
;;;2198                   l_u8Month = 11;
000076  240b              MOVS     r4,#0xb
;;;2199               }
;;;2200               break;
000078  e001              B        |L37.126|
                  |L37.122|
;;;2201           case 'c':   // Dec
;;;2202               {
;;;2203                   l_u8Month = 12;
00007a  240c              MOVS     r4,#0xc
;;;2204               }
;;;2205               break;
00007c  bf00              NOP      
                  |L37.126|
00007e  bf00              NOP                            ;2160
;;;2206       }
;;;2207   
;;;2208       l_u16Year = HexAndAsciiChange(DataStr[7],0)*1000
000080  493b              LDR      r1,|L37.368|
000082  79c8              LDRB     r0,[r1,#7]  ; DataStr
000084  2100              MOVS     r1,#0
000086  f7fffffe          BL       HexAndAsciiChange
00008a  f44f717a          MOV      r1,#0x3e8
00008e  fb00fa01          MUL      r10,r0,r1
000092  4937              LDR      r1,|L37.368|
000094  7a08              LDRB     r0,[r1,#8]  ; DataStr
000096  2100              MOVS     r1,#0
000098  f7fffffe          BL       HexAndAsciiChange
00009c  eb0001c0          ADD      r1,r0,r0,LSL #3
0000a0  eb011000          ADD      r0,r1,r0,LSL #4
0000a4  eb0a0a80          ADD      r10,r10,r0,LSL #2
0000a8  4931              LDR      r1,|L37.368|
0000aa  7a48              LDRB     r0,[r1,#9]  ; DataStr
0000ac  2100              MOVS     r1,#0
0000ae  f7fffffe          BL       HexAndAsciiChange
0000b2  eb000080          ADD      r0,r0,r0,LSL #2
0000b6  eb0a0a40          ADD      r10,r10,r0,LSL #1
0000ba  492d              LDR      r1,|L37.368|
0000bc  7a88              LDRB     r0,[r1,#0xa]  ; DataStr
0000be  2100              MOVS     r1,#0
0000c0  f7fffffe          BL       HexAndAsciiChange
0000c4  4450              ADD      r0,r0,r10
0000c6  b285              UXTH     r5,r0
;;;2209                   +HexAndAsciiChange(DataStr[8],0)*100
;;;2210                   +HexAndAsciiChange(DataStr[9],0)*10
;;;2211                   +HexAndAsciiChange(DataStr[10],0);
;;;2212       l_u8Date = ((DataStr[4]!=' ')?(HexAndAsciiChange(DataStr[4],0)*10):0)
0000c8  4829              LDR      r0,|L37.368|
0000ca  7900              LDRB     r0,[r0,#4]  ; DataStr
0000cc  2820              CMP      r0,#0x20
0000ce  d009              BEQ      |L37.228|
0000d0  4927              LDR      r1,|L37.368|
0000d2  7908              LDRB     r0,[r1,#4]  ; DataStr
0000d4  2100              MOVS     r1,#0
0000d6  f7fffffe          BL       HexAndAsciiChange
0000da  eb000080          ADD      r0,r0,r0,LSL #2
0000de  ea4f0a40          LSL      r10,r0,#1
0000e2  e001              B        |L37.232|
                  |L37.228|
0000e4  f04f0a00          MOV      r10,#0
                  |L37.232|
0000e8  4921              LDR      r1,|L37.368|
0000ea  7948              LDRB     r0,[r1,#5]  ; DataStr
0000ec  2100              MOVS     r1,#0
0000ee  f7fffffe          BL       HexAndAsciiChange
0000f2  4450              ADD      r0,r0,r10
0000f4  b2c6              UXTB     r6,r0
;;;2213                   +HexAndAsciiChange(DataStr[5],0);
;;;2214   
;;;2215       l_u8Hour = HexAndAsciiChange(TimeStr[0],0)*10
0000f6  491f              LDR      r1,|L37.372|
0000f8  7848              LDRB     r0,[r1,#1]  ; TimeStr
0000fa  2100              MOVS     r1,#0
0000fc  f7fffffe          BL       HexAndAsciiChange
000100  4682              MOV      r10,r0
000102  491c              LDR      r1,|L37.372|
000104  7808              LDRB     r0,[r1,#0]  ; TimeStr
000106  2100              MOVS     r1,#0
000108  f7fffffe          BL       HexAndAsciiChange
00010c  eb000080          ADD      r0,r0,r0,LSL #2
000110  eb0a0040          ADD      r0,r10,r0,LSL #1
000114  b2c7              UXTB     r7,r0
;;;2216                   +HexAndAsciiChange(TimeStr[1],0);
;;;2217       l_u8minute = HexAndAsciiChange(TimeStr[3],0)*10
000116  4917              LDR      r1,|L37.372|
000118  7908              LDRB     r0,[r1,#4]  ; TimeStr
00011a  2100              MOVS     r1,#0
00011c  f7fffffe          BL       HexAndAsciiChange
000120  4682              MOV      r10,r0
000122  4914              LDR      r1,|L37.372|
000124  78c8              LDRB     r0,[r1,#3]  ; TimeStr
000126  2100              MOVS     r1,#0
000128  f7fffffe          BL       HexAndAsciiChange
00012c  eb000080          ADD      r0,r0,r0,LSL #2
000130  eb0a0040          ADD      r0,r10,r0,LSL #1
000134  f00008ff          AND      r8,r0,#0xff
;;;2218                   +HexAndAsciiChange(TimeStr[4],0);
;;;2219       l_u8Second = HexAndAsciiChange(TimeStr[6],0)*10
000138  490e              LDR      r1,|L37.372|
00013a  79c8              LDRB     r0,[r1,#7]  ; TimeStr
00013c  2100              MOVS     r1,#0
00013e  f7fffffe          BL       HexAndAsciiChange
000142  4682              MOV      r10,r0
000144  490b              LDR      r1,|L37.372|
000146  7988              LDRB     r0,[r1,#6]  ; TimeStr
000148  2100              MOVS     r1,#0
00014a  f7fffffe          BL       HexAndAsciiChange
00014e  eb000080          ADD      r0,r0,r0,LSL #2
000152  eb0a0040          ADD      r0,r10,r0,LSL #1
000156  f00009ff          AND      r9,r0,#0xff
;;;2220                   +HexAndAsciiChange(TimeStr[7],0);
;;;2221   
;;;2222       g_stTestVersion.u16Year  = l_u16Year;
00015a  4807              LDR      r0,|L37.376|
00015c  8005              STRH     r5,[r0,#0]
;;;2223       g_stTestVersion.u8Month  = l_u8Month;
00015e  7084              STRB     r4,[r0,#2]
;;;2224       g_stTestVersion.u8Date   = l_u8Date;
000160  70c6              STRB     r6,[r0,#3]
;;;2225       g_stTestVersion.u8Hour   = l_u8Hour;
000162  7107              STRB     r7,[r0,#4]
;;;2226       g_stTestVersion.u8minute = l_u8minute;
000164  f8808005          STRB     r8,[r0,#5]
;;;2227       g_stTestVersion.u8Second = l_u8Second;
000168  f8809006          STRB     r9,[r0,#6]
;;;2228   }
00016c  e8bd87f0          POP      {r4-r10,pc}
;;;2229   
                          ENDP

                  |L37.368|
                          DCD      DataStr
                  |L37.372|
                          DCD      TimeStr
                  |L37.376|
                          DCD      g_stTestVersion

                          AREA ||i.mapp_UserDataEdidIndexCheck||, CODE, READONLY, ALIGN=2

                  mapp_UserDataEdidIndexCheck PROC
;;;654    
;;;655    bool mapp_UserDataEdidIndexCheck(void)
000000  e92d41f0          PUSH     {r4-r8,lr}
;;;656    {
;;;657        pstProjectGlobalAllVar_t    pstPrjAllVar = &g_stPrjGloVar;
000004  4d0a              LDR      r5,|L38.48|
;;;658        pstProjectGlobalSaveVar_t   pstPrjSaveVar = &pstPrjAllVar->stPrjSaveVar;
000006  462e              MOV      r6,r5
;;;659        pstEdidSelIndex_t           pstEdidIndex = &pstPrjSaveVar->stEdidSelIndex;
000008  f106040b          ADD      r4,r6,#0xb
;;;660        u8 l_u8CheckSum;
;;;661        bool l_bState = TRUE;
00000c  f04f0801          MOV      r8,#1
;;;662    
;;;663        l_u8CheckSum = CRC8Calculate((uint8_t *)pstEdidIndex, ((uint8_t *)&pstEdidIndex->u8CheckSum - (uint8_t *)pstEdidIndex));
000010  1d60              ADDS     r0,r4,#5
000012  1b01              SUBS     r1,r0,r4
000014  4620              MOV      r0,r4
000016  f7fffffe          BL       CRC8Calculate
00001a  4607              MOV      r7,r0
;;;664        if(l_u8CheckSum != pstEdidIndex->u8CheckSum)
00001c  7960              LDRB     r0,[r4,#5]
00001e  42b8              CMP      r0,r7
000020  d003              BEQ      |L38.42|
;;;665        {
;;;666            mapp_UserDataEdidIndexInit();
000022  f7fffffe          BL       mapp_UserDataEdidIndexInit
;;;667            #if (_EN_EEPROM_FUN_SAVE_SYS_EDID_INDEX==_MACRO_ENABLE)
;;;668            SetUserData_EdidIndexSave();
;;;669            #endif
;;;670            l_bState = FALSE;
000026  f04f0800          MOV      r8,#0
                  |L38.42|
;;;671        }
;;;672    
;;;673        return l_bState;
00002a  4640              MOV      r0,r8
;;;674    }
00002c  e8bd81f0          POP      {r4-r8,pc}
;;;675    
                          ENDP

                  |L38.48|
                          DCD      g_stPrjGloVar

                          AREA ||i.mapp_UserDataEdidIndexInit||, CODE, READONLY, ALIGN=2

                  mapp_UserDataEdidIndexInit PROC
;;;625    #else
;;;626    void mapp_UserDataEdidIndexInit(void)
000000  b530              PUSH     {r4,r5,lr}
;;;627    {
;;;628        pstProjectGlobalAllVar_t    pstPrjAllVar = &g_stPrjGloVar;
000002  4908              LDR      r1,|L39.36|
;;;629        pstProjectGlobalSaveVar_t   pstPrjSaveVar = &pstPrjAllVar->stPrjSaveVar;
000004  460b              MOV      r3,r1
;;;630        pstEdidSelIndex_t           pstEdidIndex = &pstPrjSaveVar->stEdidSelIndex;
000006  f103020b          ADD      r2,r3,#0xb
;;;631    
;;;632        pstEdidIndex->u8EdidFlashIndex = Def_UserEdidMode;
00000a  2000              MOVS     r0,#0
00000c  7010              STRB     r0,[r2,#0]
;;;633    
;;;634        #if _ENABLE_SAVE_CURRENT_EDID
;;;635        if(System_Default_Edid_table == NULL)
;;;636        {
;;;637            //System_Default_Edid_table = (iTE_u8 *)AllPrjDefEdidTabl;
;;;638            memcpy(pstEdidIndex->u8CurEdidbuf, AllPrjDefEdidTabl,256);
;;;639        }
;;;640        else
;;;641        {
;;;642            memcpy(pstEdidIndex->u8CurEdidbuf, System_Default_Edid_table,256);
;;;643        }
;;;644        #endif
;;;645        #if _ENABLE_EDID_SWITCH_A_SINGLE_CHANNEL
;;;646        {
;;;647            u8 i;
;;;648            for(i=0;i<_HDMI_INPUT_PORT_USED_NUMBER;i++)
00000e  bf00              NOP      
000010  e004              B        |L39.28|
                  |L39.18|
;;;649                pstEdidIndex->u8EdidChannelMode[i] = Def_UserEdidMode;
000012  2500              MOVS     r5,#0
000014  1c54              ADDS     r4,r2,#1
000016  5425              STRB     r5,[r4,r0]
000018  1c44              ADDS     r4,r0,#1              ;648
00001a  b2e0              UXTB     r0,r4                 ;648
                  |L39.28|
00001c  2804              CMP      r0,#4                 ;648
00001e  dbf8              BLT      |L39.18|
;;;650        }
;;;651        #endif
;;;652    }
000020  bd30              POP      {r4,r5,pc}
;;;653    #endif //add by wf8421
                          ENDP

000022  0000              DCW      0x0000
                  |L39.36|
                          DCD      g_stPrjGloVar

                          AREA ||i.mapp_UserDataHdcpAutoSave||, CODE, READONLY, ALIGN=2

                  mapp_UserDataHdcpAutoSave PROC
;;;420    
;;;421    bool mapp_UserDataHdcpAutoSave(void)
000000  e92d41f0          PUSH     {r4-r8,lr}
;;;422    {
;;;423        pstProjectGlobalAllVar_t    pstPrjAllVar = &g_stPrjGloVar;
000004  4d0c              LDR      r5,|L40.56|
;;;424        pstProjectGlobalSaveVar_t   pstPrjSaveVar = &pstPrjAllVar->stPrjSaveVar;
000006  462f              MOV      r7,r5
;;;425        pstHdcpStatusOutPort_t      pstHdcpStatusOp = &pstPrjSaveVar->stHdcpStatusOp;
000008  f1070409          ADD      r4,r7,#9
;;;426        u8 l_u8CheckSum;
;;;427        bool l_bState = TRUE;
00000c  f04f0801          MOV      r8,#1
;;;428    
;;;429        l_u8CheckSum = CRC8Calculate((uint8_t *)pstHdcpStatusOp,((uint8_t *)&pstHdcpStatusOp->u8CheckSum - (uint8_t *)pstHdcpStatusOp));
000010  1c60              ADDS     r0,r4,#1
000012  1b01              SUBS     r1,r0,r4
000014  4620              MOV      r0,r4
000016  f7fffffe          BL       CRC8Calculate
00001a  4606              MOV      r6,r0
;;;430        if(l_u8CheckSum != pstHdcpStatusOp->u8CheckSum)
00001c  7860              LDRB     r0,[r4,#1]
00001e  42b0              CMP      r0,r6
000020  d006              BEQ      |L40.48|
;;;431        {
;;;432            SetUserData_HDCP();
000022  f7fffffe          BL       SetUserData_HDCP
;;;433            pstHdcpStatusOp->u8CheckSum = l_u8CheckSum;
000026  7066              STRB     r6,[r4,#1]
;;;434            SetUserData_HDCP();
000028  f7fffffe          BL       SetUserData_HDCP
;;;435            l_bState = FALSE;
00002c  f04f0800          MOV      r8,#0
                  |L40.48|
;;;436        }
;;;437    
;;;438        return l_bState;
000030  4640              MOV      r0,r8
;;;439    }
000032  e8bd81f0          POP      {r4-r8,pc}
;;;440    
                          ENDP

000036  0000              DCW      0x0000
                  |L40.56|
                          DCD      g_stPrjGloVar

                          AREA ||i.mapp_UserDataHdcpCheck||, CODE, READONLY, ALIGN=2

                  mapp_UserDataHdcpCheck PROC
;;;386    
;;;387    bool mapp_UserDataHdcpCheck(void)
000000  e92d41f0          PUSH     {r4-r8,lr}
;;;388    {
;;;389        pstProjectGlobalAllVar_t    pstPrjAllVar = &g_stPrjGloVar;
000004  4d0c              LDR      r5,|L41.56|
;;;390        pstProjectGlobalSaveVar_t   pstPrjSaveVar = &pstPrjAllVar->stPrjSaveVar;
000006  462f              MOV      r7,r5
;;;391        pstHdcpStatusOutPort_t      pstHdcpStatusOp = &pstPrjSaveVar->stHdcpStatusOp;
000008  f1070409          ADD      r4,r7,#9
;;;392        u8 l_u8CheckSum;
;;;393        bool l_bState = TRUE;
00000c  f04f0801          MOV      r8,#1
;;;394    
;;;395        l_u8CheckSum = CRC8Calculate((uint8_t *)pstHdcpStatusOp,((uint8_t *)&pstHdcpStatusOp->u8CheckSum - (uint8_t *)pstHdcpStatusOp));
000010  1c60              ADDS     r0,r4,#1
000012  1b01              SUBS     r1,r0,r4
000014  4620              MOV      r0,r4
000016  f7fffffe          BL       CRC8Calculate
00001a  4606              MOV      r6,r0
;;;396        if(l_u8CheckSum != pstHdcpStatusOp->u8CheckSum)
00001c  7860              LDRB     r0,[r4,#1]
00001e  42b0              CMP      r0,r6
000020  d006              BEQ      |L41.48|
;;;397        {
;;;398            mapp_UserDataHdcpInit();
000022  f7fffffe          BL       mapp_UserDataHdcpInit
;;;399            pstHdcpStatusOp->u8CheckSum = l_u8CheckSum;
000026  7066              STRB     r6,[r4,#1]
;;;400            SetUserData_HDCP();
000028  f7fffffe          BL       SetUserData_HDCP
;;;401            l_bState = FALSE;
00002c  f04f0800          MOV      r8,#0
                  |L41.48|
;;;402        }
;;;403    
;;;404        return l_bState;
000030  4640              MOV      r0,r8
;;;405    }
000032  e8bd81f0          POP      {r4-r8,pc}
;;;406    
                          ENDP

000036  0000              DCW      0x0000
                  |L41.56|
                          DCD      g_stPrjGloVar

                          AREA ||i.mapp_UserDataHdcpInit||, CODE, READONLY, ALIGN=2

                  mapp_UserDataHdcpInit PROC
;;;374    
;;;375    void mapp_UserDataHdcpInit(void)
000000  b510              PUSH     {r4,lr}
;;;376    {
;;;377        pstProjectGlobalAllVar_t    pstPrjAllVar = &g_stPrjGloVar;
000002  4906              LDR      r1,|L42.28|
;;;378        pstProjectGlobalSaveVar_t   pstPrjSaveVar = &pstPrjAllVar->stPrjSaveVar;
000004  460b              MOV      r3,r1
;;;379        pstHdcpStatusOutPort_t      pstHdcpStatusOp = &pstPrjSaveVar->stHdcpStatusOp;
000006  f1030209          ADD      r2,r3,#9
;;;380        u8 l_u8Index;
;;;381        for(l_u8Index = 0;l_u8Index <_HDMI_O_PORT_NUM; l_u8Index++)
00000a  2000              MOVS     r0,#0
00000c  e003              B        |L42.22|
                  |L42.14|
;;;382        {
;;;383            pstHdcpStatusOp->u8HdcpSta[l_u8Index] = Def_OutputHdcpMode;
00000e  2400              MOVS     r4,#0
000010  5414              STRB     r4,[r2,r0]
000012  1c44              ADDS     r4,r0,#1              ;381
000014  b2e0              UXTB     r0,r4                 ;381
                  |L42.22|
000016  2801              CMP      r0,#1                 ;381
000018  dbf9              BLT      |L42.14|
;;;384        }
;;;385    }
00001a  bd10              POP      {r4,pc}
;;;386    
                          ENDP

                  |L42.28|
                          DCD      g_stPrjGloVar

                          AREA ||i.mapp_UserDataProjectNameCheck||, CODE, READONLY, ALIGN=2

                  mapp_UserDataProjectNameCheck PROC
;;;701    
;;;702    bool mapp_UserDataProjectNameCheck(void)
000000  e92d41f0          PUSH     {r4-r8,lr}
;;;703    {
;;;704        pstProjectGlobalAllVar_t    pstPrjAllVar = &g_stPrjGloVar;
000004  4d0c              LDR      r5,|L43.56|
;;;705        pstProjectGlobalSaveVar_t   pstPrjSaveVar = &pstPrjAllVar->stPrjSaveVar;
000006  462f              MOV      r7,r5
;;;706        pstProjectNameSet_t         pstPrjNameSet = &pstPrjSaveVar->stPrjNameSet;
000008  f1070411          ADD      r4,r7,#0x11
;;;707        u8 l_u8CheckSum;
;;;708        bool l_bState = TRUE;
00000c  f04f0801          MOV      r8,#1
;;;709    
;;;710        l_u8CheckSum = CRC8Calculate((uint8_t *)pstPrjNameSet, ((uint8_t *)&pstPrjNameSet->u8CheckSum - (uint8_t *)pstPrjNameSet));
000010  f104003d          ADD      r0,r4,#0x3d
000014  1b01              SUBS     r1,r0,r4
000016  4620              MOV      r0,r4
000018  f7fffffe          BL       CRC8Calculate
00001c  4606              MOV      r6,r0
;;;711        if(l_u8CheckSum != pstPrjNameSet->u8CheckSum)
00001e  f894003d          LDRB     r0,[r4,#0x3d]
000022  42b0              CMP      r0,r6
000024  d005              BEQ      |L43.50|
;;;712        {
;;;713            pstPrjNameSet->u8CheckSum = l_u8CheckSum;
000026  f884603d          STRB     r6,[r4,#0x3d]
;;;714            mapp_UserDataProjectNameInit();
00002a  f7fffffe          BL       mapp_UserDataProjectNameInit
;;;715            l_bState = FALSE;
00002e  f04f0800          MOV      r8,#0
                  |L43.50|
;;;716        }
;;;717    
;;;718        return l_bState;
000032  4640              MOV      r0,r8
;;;719    }
000034  e8bd81f0          POP      {r4-r8,pc}
;;;720    
                          ENDP

                  |L43.56|
                          DCD      g_stPrjGloVar

                          AREA ||i.mapp_UserDataProjectNameInit||, CODE, READONLY, ALIGN=2

                  mapp_UserDataProjectNameInit PROC
;;;691    
;;;692    void mapp_UserDataProjectNameInit(void)
000000  b570              PUSH     {r4-r6,lr}
;;;693    {
;;;694        pstProjectGlobalAllVar_t    pstPrjAllVar = &g_stPrjGloVar;
000002  4c06              LDR      r4,|L44.28|
;;;695        pstProjectGlobalSaveVar_t   pstPrjSaveVar = &pstPrjAllVar->stPrjSaveVar;
000004  4626              MOV      r6,r4
;;;696        pstProjectNameSet_t         pstPrjNameSet = &pstPrjSaveVar->stPrjNameSet;
000006  f1060511          ADD      r5,r6,#0x11
;;;697    
;;;698        memset(pstPrjNameSet->sPrjName, 0, SIZE_PRJ_NAME_CHARS_MAX);
00000a  213c              MOVS     r1,#0x3c
00000c  4628              MOV      r0,r5
00000e  f7fffffe          BL       __aeabi_memclr
;;;699        pstPrjNameSet->m_u8Len = 0;
000012  2000              MOVS     r0,#0
000014  f885003c          STRB     r0,[r5,#0x3c]
;;;700    }
000018  bd70              POP      {r4-r6,pc}
;;;701    
                          ENDP

00001a  0000              DCW      0x0000
                  |L44.28|
                          DCD      g_stPrjGloVar

                          AREA ||i.mapp_UserData_HdmiSelAutoSave||, CODE, READONLY, ALIGN=2

                  mapp_UserData_HdmiSelAutoSave PROC
;;;359    
;;;360    void mapp_UserData_HdmiSelAutoSave(void)
000000  e92d41f0          PUSH     {r4-r8,lr}
;;;361    {
;;;362        pstProjectGlobalAllVar_t    pstPrjAllVar = &g_stPrjGloVar;
000004  4c08              LDR      r4,|L45.40|
;;;363        pstProjectGlobalSaveVar_t   pstPrjSaveVar = &pstPrjAllVar->stPrjSaveVar;
000006  4626              MOV      r6,r4
;;;364        pstHdmiSwitchParam_t        pstHdmiSw = &pstPrjSaveVar->stHdmiSel;
000008  4635              MOV      r5,r6
;;;365        u8 l_u8CheckSum;
;;;366        l_u8CheckSum = CRC8Calculate((uint8_t *)pstHdmiSw,((uint8_t *)&pstHdmiSw->u8CheckSum - (uint8_t *)pstHdmiSw));
00000a  f1050008          ADD      r0,r5,#8
00000e  1b41              SUBS     r1,r0,r5
000010  4628              MOV      r0,r5
000012  f7fffffe          BL       CRC8Calculate
000016  4607              MOV      r7,r0
;;;367        if(l_u8CheckSum!= pstHdmiSw->u8CheckSum)
000018  7a28              LDRB     r0,[r5,#8]
00001a  42b8              CMP      r0,r7
00001c  d002              BEQ      |L45.36|
;;;368        {
;;;369            SetUserData_HdmiSel();
00001e  f7fffffe          BL       SetUserData_HdmiSel
;;;370            pstHdmiSw->u8CheckSum = l_u8CheckSum;
000022  722f              STRB     r7,[r5,#8]
                  |L45.36|
;;;371    
;;;372        }
;;;373    }
000024  e8bd81f0          POP      {r4-r8,pc}
;;;374    
                          ENDP

                  |L45.40|
                          DCD      g_stPrjGloVar

                          AREA ||i.mapp_UserData_HdmiSelCheck||, CODE, READONLY, ALIGN=2

                  mapp_UserData_HdmiSelCheck PROC
;;;307    
;;;308    bool mapp_UserData_HdmiSelCheck(void)
000000  e92d41f0          PUSH     {r4-r8,lr}
;;;309    {
;;;310        pstProjectGlobalAllVar_t    pstPrjAllVar = &g_stPrjGloVar;
000004  4c0b              LDR      r4,|L46.52|
;;;311        pstProjectGlobalSaveVar_t   pstPrjSaveVar = &pstPrjAllVar->stPrjSaveVar;
000006  4626              MOV      r6,r4
;;;312        pstHdmiSwitchParam_t        pstHdmiSw = &pstPrjSaveVar->stHdmiSel;
000008  4635              MOV      r5,r6
;;;313        u8 l_u8CheckSum;
;;;314        bool l_bState = TRUE;
00000a  f04f0801          MOV      r8,#1
;;;315        l_u8CheckSum = CRC8Calculate((uint8_t *)pstHdmiSw,((uint8_t *)&pstHdmiSw->u8CheckSum - (uint8_t *)pstHdmiSw));
00000e  f1050008          ADD      r0,r5,#8
000012  1b41              SUBS     r1,r0,r5
000014  4628              MOV      r0,r5
000016  f7fffffe          BL       CRC8Calculate
00001a  4607              MOV      r7,r0
;;;316        if(l_u8CheckSum!= pstHdmiSw->u8CheckSum)
00001c  7a28              LDRB     r0,[r5,#8]
00001e  42b8              CMP      r0,r7
000020  d004              BEQ      |L46.44|
;;;317        {
;;;318            mapp_UserData_HdmiSelInit();
000022  f7fffffe          BL       mapp_UserData_HdmiSelInit
;;;319            pstHdmiSw->u8CheckSum = l_u8CheckSum;
000026  722f              STRB     r7,[r5,#8]
;;;320    
;;;321            l_bState = FALSE;
000028  f04f0800          MOV      r8,#0
                  |L46.44|
;;;322        }
;;;323    
;;;324        return l_bState;
00002c  4640              MOV      r0,r8
;;;325    }
00002e  e8bd81f0          POP      {r4-r8,pc}
;;;326    
                          ENDP

000032  0000              DCW      0x0000
                  |L46.52|
                          DCD      g_stPrjGloVar

                          AREA ||i.mapp_UserData_HdmiSelInit||, CODE, READONLY, ALIGN=2

                  mapp_UserData_HdmiSelInit PROC
;;;286    
;;;287    void mapp_UserData_HdmiSelInit(void)
000000  b510              PUSH     {r4,lr}
;;;288    {
;;;289        pstProjectGlobalAllVar_t    pstPrjAllVar = &g_stPrjGloVar;
000002  4907              LDR      r1,|L47.32|
;;;290        pstProjectGlobalSaveVar_t   pstPrjSaveVar = &pstPrjAllVar->stPrjSaveVar;
000004  460b              MOV      r3,r1
;;;291        pstHdmiSwitchParam_t        pstHdmiSw = &pstPrjSaveVar->stHdmiSel;
000006  461a              MOV      r2,r3
;;;292        #if _ENABLE_MULTI_OUTPUT_CHIP
;;;293        u8 l_u8index;
;;;294        #endif
;;;295    
;;;296        #if _ENABLE_MULTI_OUTPUT_CHIP
;;;297        for(l_u8index=0;l_u8index<Def_outport_num;l_u8index++)
000008  2000              MOVS     r0,#0
00000a  e005              B        |L47.24|
                  |L47.12|
;;;298        {
;;;299            pstHdmiSw->bAutoSwitch[l_u8index] = Def_AutoSwitchMode;   //auto switch mode
00000c  2401              MOVS     r4,#1
00000e  5414              STRB     r4,[r2,r0]
;;;300            pstHdmiSw->u8SwChannel[l_u8index] = l_u8index/*Def_DefaultChannel*/;      //the first channel
000010  1d14              ADDS     r4,r2,#4
000012  5420              STRB     r0,[r4,r0]
000014  1c44              ADDS     r4,r0,#1              ;297
000016  b2e0              UXTB     r0,r4                 ;297
                  |L47.24|
000018  2804              CMP      r0,#4                 ;297
00001a  dbf7              BLT      |L47.12|
;;;301        }
;;;302        #else
;;;303        pstHdmiSw->bAutoSwitch = Def_AutoSwitchMode;//auto switch mode
;;;304        pstHdmiSw->u8SwChannel = Def_DefaultChannel;//the first channel
;;;305        #endif
;;;306    }
00001c  bd10              POP      {r4,pc}
;;;307    
                          ENDP

00001e  0000              DCW      0x0000
                  |L47.32|
                          DCD      g_stPrjGloVar

                          AREA ||i.my_CaseStrStr||, CODE, READONLY, ALIGN=1

                  my_CaseStrStr PROC
;;;1983   
;;;1984   char *my_CaseStrStr(char *inBuffer,char *inSerchStr)
000000  e92d47f0          PUSH     {r4-r10,lr}
;;;1985   {
000004  4607              MOV      r7,r0
000006  4688              MOV      r8,r1
;;;1986       char *pCurrBuffer = inBuffer;
000008  463c              MOV      r4,r7
;;;1987       while(*pCurrBuffer != '\0')
00000a  e014              B        |L48.54|
                  |L48.12|
;;;1988       {
;;;1989           char *pCompareOne = pCurrBuffer;
00000c  4625              MOV      r5,r4
;;;1990           char *pCompareTow = inSerchStr;
00000e  4646              MOV      r6,r8
;;;1991           while(tolower(*pCompareOne) == tolower(*pCompareTow))
000010  e006              B        |L48.32|
                  |L48.18|
;;;1992           {
;;;1993               pCompareOne++;
000012  1c6d              ADDS     r5,r5,#1
;;;1994               pCompareTow++;
000014  1c76              ADDS     r6,r6,#1
;;;1995               if(*pCompareTow == '\0')
000016  7830              LDRB     r0,[r6,#0]
000018  b910              CBNZ     r0,|L48.32|
;;;1996               {
;;;1997                   return (char*)pCompareOne;
00001a  4628              MOV      r0,r5
                  |L48.28|
;;;1998               }
;;;1999           }
;;;2000           pCurrBuffer++;
;;;2001       }
;;;2002       return NULL;
;;;2003   }
00001c  e8bd87f0          POP      {r4-r10,pc}
                  |L48.32|
000020  7828              LDRB     r0,[r5,#0]            ;1991
000022  f7fffffe          BL       tolower
000026  4681              MOV      r9,r0                 ;1991
000028  7830              LDRB     r0,[r6,#0]            ;1991
00002a  f7fffffe          BL       tolower
00002e  4581              CMP      r9,r0                 ;1991
000030  d0ef              BEQ      |L48.18|
000032  1c64              ADDS     r4,r4,#1              ;2000
000034  bf00              NOP                            ;2001
                  |L48.54|
000036  7820              LDRB     r0,[r4,#0]            ;1987
000038  2800              CMP      r0,#0                 ;1987
00003a  d1e7              BNE      |L48.12|
00003c  bf00              NOP                            ;2002
00003e  e7ed              B        |L48.28|
;;;2004   
                          ENDP


                          AREA ||i.my_StrStr||, CODE, READONLY, ALIGN=1

                  my_StrStr PROC
;;;1949   #else
;;;1950   char *my_StrStr(char *inBuffer,char *inSerchStr)//参照strstr函数原型构建自己的strstr函数
000000  b570              PUSH     {r4-r6,lr}
;;;1951   {
000002  4605              MOV      r5,r0
000004  460c              MOV      r4,r1
;;;1952   	char*s1 = NULL;//创建一个空指针；
000006  2100              MOVS     r1,#0
;;;1953   	char*s2 = NULL;
000008  2200              MOVS     r2,#0
;;;1954   	char*cur = inBuffer;
00000a  462b              MOV      r3,r5
;;;1955   	if (*inSerchStr == '\0')
00000c  7820              LDRB     r0,[r4,#0]
00000e  b908              CBNZ     r0,|L49.20|
;;;1956   	{
;;;1957   		return (char*)inBuffer;                    //如果我们所要找的子串inSerchStr为'\0',返回总串的首元素地址
000010  4628              MOV      r0,r5
                  |L49.18|
;;;1958   	}
;;;1959   
;;;1960   	while (*cur)//cur代表指向的是子串第一次出现的首元素地址
;;;1961   	{
;;;1962   		s1 = cur;                      //把cur指向字符串的首元素地址赋给s1
;;;1963   		s2 = (char*)inSerchStr;                    //把inSerchStr指向的首元素地址赋给s2，每一次循环都要从inSerchStr的首元素地址开始重新比较
;;;1964   		while ((*s1 != 0) && (*s2 != 0) && *s1 == *s2)           //只有在s1指向的首元素地址，s2指向的首元素地址都不为'\0'的时候，才可以在总串中找子串的首地址第一次出现的时候
;;;1965   		{                                            // 比较s1，s2指向的地址所对应的字符是否相等，若相等，各自指向的地址向后跳一个字节比较下一位是否相等在满足以上的条件下不断循环，若不满足，
;;;1966   			s1++;                                    //开始一下比较
;;;1967   			s2++;
;;;1968   		}
;;;1969   		if (*s2 == '\0')             //若经过上面的比较，s2指向的内容恰好是'\0',代表找到子串首次出现的地址
;;;1970   		{                              //若不满足以上情况的比较，开始以下比较
;;;1971   			return (char*)cur;
;;;1972   		}
;;;1973   		if (*s1 == '\0')
;;;1974   		{
;;;1975   			return NULL;            //若在s2指向的内容不为'\0'时，s1指向的内容率先为0，代表总串长度比子串长度短，必不存在子串，返回一个空指针
;;;1976   		}
;;;1977   		cur++;//代表当前cur指向的并不是子串第一次出现的首元素地址，指向的地址要往后跳一个字节
;;;1978   	}
;;;1979   
;;;1980   	return NULL;//如果经过以上比较都不能得出结果，代表找不到子串，要返回空指针
;;;1981   }
000012  bd70              POP      {r4-r6,pc}
                  |L49.20|
000014  e015              B        |L49.66|
                  |L49.22|
000016  4619              MOV      r1,r3                 ;1962
000018  4622              MOV      r2,r4                 ;1963
00001a  e001              B        |L49.32|
                  |L49.28|
00001c  1c49              ADDS     r1,r1,#1              ;1966
00001e  1c52              ADDS     r2,r2,#1              ;1967
                  |L49.32|
000020  7808              LDRB     r0,[r1,#0]            ;1964
000022  b128              CBZ      r0,|L49.48|
000024  7810              LDRB     r0,[r2,#0]            ;1964
000026  b118              CBZ      r0,|L49.48|
000028  7808              LDRB     r0,[r1,#0]            ;1964
00002a  7816              LDRB     r6,[r2,#0]            ;1964
00002c  42b0              CMP      r0,r6                 ;1964
00002e  d0f5              BEQ      |L49.28|
                  |L49.48|
000030  7810              LDRB     r0,[r2,#0]            ;1969
000032  b908              CBNZ     r0,|L49.56|
000034  4618              MOV      r0,r3                 ;1971
000036  e7ec              B        |L49.18|
                  |L49.56|
000038  7808              LDRB     r0,[r1,#0]            ;1973
00003a  b908              CBNZ     r0,|L49.64|
00003c  2000              MOVS     r0,#0                 ;1975
00003e  e7e8              B        |L49.18|
                  |L49.64|
000040  1c5b              ADDS     r3,r3,#1              ;1977
                  |L49.66|
000042  7818              LDRB     r0,[r3,#0]            ;1960
000044  2800              CMP      r0,#0                 ;1960
000046  d1e6              BNE      |L49.22|
000048  bf00              NOP                            ;1980
00004a  e7e2              B        |L49.18|
;;;1982   #endif
                          ENDP


                          AREA ||.bss||, DATA, NOINIT, ALIGN=2

                  g_stPrjGloVar
                          %        88
                  g_pu8It663xxEdidBuffer
                          %        256
                  g_u8SingleChannelEdidBuffer
                          %        1024
                  gTimerCounters
                          %        16

                          AREA ||.constdata||, DATA, READONLY, ALIGN=2

                  DataStr
000000  41756720          DCB      0x41,0x75,0x67,0x20
000004  32392032          DCB      0x32,0x39,0x20,0x32
000008  30323400          DCB      0x30,0x32,0x34,0x00
                  TimeStr
00000c  30393a35          DCB      0x30,0x39,0x3a,0x35
000010  383a3236          DCB      0x38,0x3a,0x32,0x36
000014  00                DCB      0x00
                  AllPrjDefEdidTabl
000015  00ffff            DCB      0x00,0xff,0xff
000018  ffffffff          DCB      0xff,0xff,0xff,0xff
00001c  00550400          DCB      0x00,0x55,0x04,0x00
000020  00000000          DCB      0x00,0x00,0x00,0x00
000024  00321c01          DCB      0x00,0x32,0x1c,0x01
000028  0380502d          DCB      0x03,0x80,0x50,0x2d
00002c  780aee91          DCB      0x78,0x0a,0xee,0x91
000030  a3544c99          DCB      0xa3,0x54,0x4c,0x99
000034  260f5054          DCB      0x26,0x0f,0x50,0x54
000038  00000001          DCB      0x00,0x00,0x00,0x01
00003c  01010101          DCB      0x01,0x01,0x01,0x01
000040  01010101          DCB      0x01,0x01,0x01,0x01
000044  01010101          DCB      0x01,0x01,0x01,0x01
000048  01010102          DCB      0x01,0x01,0x01,0x02
00004c  3a801871          DCB      0x3a,0x80,0x18,0x71
000050  382d4058          DCB      0x38,0x2d,0x40,0x58
000054  2c450020          DCB      0x2c,0x45,0x00,0x20
000058  c2310000          DCB      0xc2,0x31,0x00,0x00
00005c  1e000000          DCB      0x1e,0x00,0x00,0x00
000060  11000000          DCB      0x11,0x00,0x00,0x00
000064  00000000          DCB      0x00,0x00,0x00,0x00
000068  00000000          DCB      0x00,0x00,0x00,0x00
00006c  00000000          DCB      0x00,0x00,0x00,0x00
000070  00001100          DCB      0x00,0x00,0x11,0x00
000074  00000000          DCB      0x00,0x00,0x00,0x00
000078  00000000          DCB      0x00,0x00,0x00,0x00
00007c  00000000          DCB      0x00,0x00,0x00,0x00
000080  00000000          DCB      0x00,0x00,0x00,0x00
000084  fc004844          DCB      0xfc,0x00,0x48,0x44
000088  20566964          DCB      0x20,0x56,0x69,0x64
00008c  656f0a20          DCB      0x65,0x6f,0x0a,0x20
000090  20202001          DCB      0x20,0x20,0x20,0x01
000094  68020323          DCB      0x68,0x02,0x03,0x23
000098  724b909f          DCB      0x72,0x4b,0x90,0x9f
00009c  22212005          DCB      0x22,0x21,0x20,0x05
0000a0  14041312          DCB      0x14,0x04,0x13,0x12
0000a4  0323091f          DCB      0x03,0x23,0x09,0x1f
0000a8  07830100          DCB      0x07,0x83,0x01,0x00
0000ac  0067030c          DCB      0x00,0x67,0x03,0x0c
0000b0  00100000          DCB      0x00,0x10,0x00,0x00
0000b4  20e2000f          DCB      0x20,0xe2,0x00,0x0f
0000b8  00000000          DCB      0x00,0x00,0x00,0x00
0000bc  00000000          DCB      0x00,0x00,0x00,0x00
0000c0  00000000          DCB      0x00,0x00,0x00,0x00
0000c4  00000000          DCB      0x00,0x00,0x00,0x00
0000c8  00000000          DCB      0x00,0x00,0x00,0x00
0000cc  00000000          DCB      0x00,0x00,0x00,0x00
0000d0  00000000          DCB      0x00,0x00,0x00,0x00
0000d4  00000000          DCB      0x00,0x00,0x00,0x00
0000d8  00000000          DCB      0x00,0x00,0x00,0x00
0000dc  00000000          DCB      0x00,0x00,0x00,0x00
0000e0  00000000          DCB      0x00,0x00,0x00,0x00
0000e4  00000000          DCB      0x00,0x00,0x00,0x00
0000e8  00000000          DCB      0x00,0x00,0x00,0x00
0000ec  00000000          DCB      0x00,0x00,0x00,0x00
0000f0  00000000          DCB      0x00,0x00,0x00,0x00
0000f4  00000000          DCB      0x00,0x00,0x00,0x00
0000f8  00000000          DCB      0x00,0x00,0x00,0x00
0000fc  00000000          DCB      0x00,0x00,0x00,0x00
000100  00000000          DCB      0x00,0x00,0x00,0x00
000104  00000000          DCB      0x00,0x00,0x00,0x00
000108  00000000          DCB      0x00,0x00,0x00,0x00
00010c  00000000          DCB      0x00,0x00,0x00,0x00
000110  00000000          DCB      0x00,0x00,0x00,0x00
000114  d7                DCB      0xd7
                  ExtendEdidTable
000115  047400            DCB      0x04,0x74,0x00
000118  30f2705a          DCB      0x30,0xf2,0x70,0x5a
00011c  80b0588a          DCB      0x80,0xb0,0x58,0x8a
000120  00c48e21          DCB      0x00,0xc4,0x8e,0x21
000124  00001e00          DCB      0x00,0x00,0x1e,0x00
000128  02032372          DCB      0x02,0x03,0x23,0x72
00012c  4b909f22          DCB      0x4b,0x90,0x9f,0x22
000130  21200514          DCB      0x21,0x20,0x05,0x14
000134  04131203          DCB      0x04,0x13,0x12,0x03
000138  23091f07          DCB      0x23,0x09,0x1f,0x07
00013c  83010000          DCB      0x83,0x01,0x00,0x00
000140  67030c00          DCB      0x67,0x03,0x0c,0x00
000144  10000020          DCB      0x10,0x00,0x00,0x20
000148  e2000f00          DCB      0xe2,0x00,0x0f,0x00
00014c  00000000          DCB      0x00,0x00,0x00,0x00
000150  00000000          DCB      0x00,0x00,0x00,0x00
000154  00000000          DCB      0x00,0x00,0x00,0x00
000158  00000000          DCB      0x00,0x00,0x00,0x00
00015c  00000000          DCB      0x00,0x00,0x00,0x00
000160  00000000          DCB      0x00,0x00,0x00,0x00
000164  00000000          DCB      0x00,0x00,0x00,0x00
000168  00000000          DCB      0x00,0x00,0x00,0x00
00016c  00000000          DCB      0x00,0x00,0x00,0x00
000170  00000000          DCB      0x00,0x00,0x00,0x00
000174  00000000          DCB      0x00,0x00,0x00,0x00
000178  00000000          DCB      0x00,0x00,0x00,0x00
00017c  00000000          DCB      0x00,0x00,0x00,0x00
000180  00000000          DCB      0x00,0x00,0x00,0x00
000184  00000000          DCB      0x00,0x00,0x00,0x00
000188  00000000          DCB      0x00,0x00,0x00,0x00
00018c  00000000          DCB      0x00,0x00,0x00,0x00
000190  00000000          DCB      0x00,0x00,0x00,0x00
000194  00000000          DCB      0x00,0x00,0x00,0x00
000198  00000000          DCB      0x00,0x00,0x00,0x00
00019c  00000000          DCB      0x00,0x00,0x00,0x00
0001a0  00000000          DCB      0x00,0x00,0x00,0x00
0001a4  000000d7          DCB      0x00,0x00,0x00,0xd7

                          AREA ||.data||, DATA, ALIGN=2

                  System_Default_Edid_table
                          DCD      0x00000000
                  g_stTestVersion
                          %        8
                  g_edid_tabel_user_def
                          DCD      0x08038000
